(dp0
Vm_nu
p1
L0L
sVDA_LOWZ
p2
F966.05
sVOm0
p3
F0.274
sVH
p4
F93.558
sVsigma8
p5
F0.8
sVDA
p6
F1359.72
sVH0
p7
L70L
sVOk0
p8
L0L
sVn_s
p9
F0.85
sVrs_zd_EH98
p10
F153.19
sVrs_zd_CAMB
p11
F149.28
sVObh2
p12
F0.0224
sVDV
p13
F2026.49
sVw
p14
L-1L
sVH_LOWZ
p15
F81.519
sVDV_LOWZ
p16
F1241.47
s.