(dp0
Vrs_zd_CAMB
p1
F149.28
sVObh2
p2
F0.0224
sVn_s
p3
F0.85
sVw
p4
L-1L
sVm_nu
p5
L0L
sVOm0
p6
F0.274
sVsigma8
p7
F0.8
sVrs_zd_EH98
p8
F153.19
sVH0
p9
L70L
sVH
p10
F93.558
sVOk0
p11
L0L
sVDA
p12
F1359.72
sVDV
p13
F2026.49
s.