Certificate:
    Data:
        Version: 3 (0x2)
        Serial Number: 268435671 (0x100000d7)
    Signature Algorithm: sha256WithRSAEncryption
        Issuer: C=DE, ST=Hessen, O=privacyidea, CN=CA001
        Validity
            Not Before: Sep 21 19:44:11 2018 GMT
            Not After : Sep 21 19:44:11 2019 GMT
        Subject: CN=selfservice,CN=user,O=realm1/emailAddress=meine
        Subject Public Key Info:
            Public Key Algorithm: rsaEncryption
                Public-Key: (2048 bit)
                Modulus:
                    00:cf:3c:d4:33:0e:12:c4:e6:da:cd:b6:56:a1:1c:
                    26:bb:26:1c:8a:4a:73:a8:58:8a:b6:1e:b3:8b:99:
                    d2:1d:07:c2:92:89:79:c0:69:d8:c8:df:28:61:98:
                    1e:b3:fe:ae:2b:bd:78:a9:f7:6e:47:dc:a3:a0:16:
                    8c:85:02:c1:4e:92:fd:72:6e:f0:c8:03:29:9b:b8:
                    00:6e:c0:83:95:c8:34:20:36:9c:b3:e5:e4:e6:76:
                    73:a3:1a:ad:40:96:e0:53:54:00:ec:76:79:9a:c6:
                    0d:7e:b6:bd:29:ec:83:f3:cb:89:a4:cb:6c:00:ba:
                    0c:c5:78:0f:ff:69:b8:94:f4:04:70:43:3f:d8:9e:
                    d7:a7:fb:5d:ce:75:8e:da:e7:c4:07:b1:9d:de:6f:
                    88:4b:b6:4d:9a:cf:f9:bc:fa:9f:cd:32:6d:f6:3a:
                    0b:0d:23:42:78:ec:97:42:bf:0e:4d:60:56:e1:d3:
                    02:f2:19:cb:84:57:90:e5:70:a1:a2:83:35:86:e2:
                    da:86:9f:f9:8a:c4:79:b3:52:28:da:cb:bb:34:ca:
                    d3:da:91:4a:cf:8d:76:a2:b2:6b:9b:f9:96:fd:09:
                    2a:da:11:23:4d:f0:cb:d6:b2:b1:0e:12:6c:9a:19:
                    65:98:87:ca:e4:ee:24:ce:44:ac:90:8f:9d:1b:c5:
                    2a:9d
                Exponent: 65537 (0x10001)
        X509v3 extensions:
            X509v3 Key Usage: 
                Digital Signature, Key Encipherment
            X509v3 Basic Constraints: 
                CA:FALSE
            Netscape Cert Type: 
                SSL Server
            Netscape Comment: 
                OpenSSL Generated Server Certificate
            X509v3 Subject Key Identifier: 
                4D:07:90:AD:FF:1D:0D:E7:1A:DD:D6:2E:FA:BA:34:CB:AA:1F:24:C6
            X509v3 Authority Key Identifier: 
                keyid:F4:A7:C0:CC:91:46:AF:64:F3:91:F2:27:F8:C8:B2:6F:8A:87:32:73
                DirName:/C=DE/ST=Hessen/O=privacyidea/CN=CA001
                serial:FB:C8:EB:AC:83:CD:12:07

            X509v3 Extended Key Usage: 
                TLS Web Server Authentication
    Signature Algorithm: sha256WithRSAEncryption
         62:7b:6b:cd:84:5b:b2:01:8a:2b:bd:95:1c:c5:f4:03:21:b6:
         84:ca:ad:b2:f9:d8:c0:e6:0f:82:38:29:e5:98:a5:f7:e7:49:
         bf:cf:c1:5f:ac:16:a4:c3:1d:5e:93:4c:24:eb:03:01:bf:5d:
         40:61:12:11:92:f5:73:23:90:6c:7d:78:da:56:67:d7:10:1e:
         d2:9b:2b:62:0c:5b:85:12:b1:27:24:02:1a:2e:37:5e:5e:a4:
         c1:e9:c4:b3:07:af:38:c6:a7:5f:9c:8a:78:26:ae:f8:81:dd:
         64:8d:8c:37:ae:a6:fd:9d:1c:86:35:29:20:5e:10:21:78:af:
         90:1c:28:ec:06:cc:57:07:74:bd:db:a0:6e:80:72:6b:e0:51:
         bf:29:81:d4:15:9a:a1:21:33:92:da:d5:e8:60:97:79:c2:0a:
         bc:9f:e4:1e:f1:0c:73:12:31:0d:c1:32:75:35:66:05:11:aa:
         c1:5a:e1:6c:26:ed:ce:ee:29:9b:ab:93:aa:e5:2d:94:dd:4e:
         33:ef:17:7a:49:a6:16:2a:4d:b1:d8:43:78:a4:d4:58:b2:cb:
         26:90:e2:20:80:38:35:8e:a2:8c:cf:ae:ca:82:52:18:82:eb:
         ca:9e:4f:9a:62:ff:71:5a:ca:c5:df:44:8b:f7:9b:13:c7:3d:
         14:33:4d:b4
-----BEGIN CERTIFICATE-----
MIIEDzCCAvegAwIBAgIEEAAA1zANBgkqhkiG9w0BAQsFADBEMQswCQYDVQQGEwJE
RTEPMA0GA1UECAwGSGVzc2VuMRQwEgYDVQQKDAtwcml2YWN5aWRlYTEOMAwGA1UE
AwwFQ0EwMDEwHhcNMTgwOTIxMTk0NDExWhcNMTkwOTIxMTk0NDExWjA9MSUwIwYD
VQQDDBxzZWxmc2VydmljZSxDTj11c2VyLE89cmVhbG0xMRQwEgYJKoZIhvcNAQkB
FgVtZWluZTCCASIwDQYJKoZIhvcNAQEBBQADggEPADCCAQoCggEBAM881DMOEsTm
2s22VqEcJrsmHIpKc6hYirYes4uZ0h0HwpKJecBp2MjfKGGYHrP+riu9eKn3bkfc
o6AWjIUCwU6S/XJu8MgDKZu4AG7Ag5XINCA2nLPl5OZ2c6MarUCW4FNUAOx2eZrG
DX62vSnsg/PLiaTLbAC6DMV4D/9puJT0BHBDP9ie16f7Xc51jtrnxAexnd5viEu2
TZrP+bz6n80ybfY6Cw0jQnjsl0K/Dk1gVuHTAvIZy4RXkOVwoaKDNYbi2oaf+YrE
ebNSKNrLuzTK09qRSs+NdqKya5v5lv0JKtoRI03wy9aysQ4SbJoZZZiHyuTuJM5E
rJCPnRvFKp0CAwEAAaOCAQ4wggEKMAsGA1UdDwQEAwIFoDAJBgNVHRMEAjAAMBEG
CWCGSAGG+EIBAQQEAwIGQDAzBglghkgBhvhCAQ0EJhYkT3BlblNTTCBHZW5lcmF0
ZWQgU2VydmVyIENlcnRpZmljYXRlMB0GA1UdDgQWBBRNB5Ct/x0N5xrd1i76ujTL
qh8kxjB0BgNVHSMEbTBrgBT0p8DMkUavZPOR8if4yLJviocyc6FIpEYwRDELMAkG
A1UEBhMCREUxDzANBgNVBAgMBkhlc3NlbjEUMBIGA1UECgwLcHJpdmFjeWlkZWEx
DjAMBgNVBAMMBUNBMDAxggkA+8jrrIPNEgcwEwYDVR0lBAwwCgYIKwYBBQUHAwEw
DQYJKoZIhvcNAQELBQADggEBAGJ7a82EW7IBiiu9lRzF9AMhtoTKrbL52MDmD4I4
KeWYpffnSb/PwV+sFqTDHV6TTCTrAwG/XUBhEhGS9XMjkGx9eNpWZ9cQHtKbK2IM
W4USsSckAhouN15epMHpxLMHrzjGp1+cingmrviB3WSNjDeupv2dHIY1KSBeECF4
r5AcKOwGzFcHdL3boG6AcmvgUb8pgdQVmqEhM5La1ehgl3nCCryf5B7xDHMSMQ3B
MnU1ZgURqsFa4Wwm7c7uKZurk6rlLZTdTjPvF3pJphYqTbHYQ3ik1FiyyyaQ4iCA
ODWOoozPrsqCUhiC68qeT5pi/3FaysXfRIv3mxPHPRQzTbQ=
-----END CERTIFICATE-----
