Certificate:
    Data:
        Version: 3 (0x2)
        Serial Number: 268435665 (0x100000d1)
    Signature Algorithm: sha256WithRSAEncryption
        Issuer: C=DE, ST=Hessen, O=privacyidea, CN=CA001
        Validity
            Not Before: Sep 21 19:33:10 2018 GMT
            Not After : Sep 21 19:33:10 2019 GMT
        Subject: C=DE, ST=Hessen, O=privacyidea, CN=requester.localdomain
        Subject Public Key Info:
            Public Key Algorithm: rsaEncryption
                Public-Key: (2048 bit)
                Modulus:
                    00:cd:be:14:4f:fa:ce:01:3f:42:22:1b:1d:9c:af:
                    dd:92:d2:7f:db:6c:b7:3e:39:43:43:6b:13:03:f1:
                    05:f4:07:74:bc:76:69:28:0b:af:19:8e:d7:fc:e3:
                    cd:c6:58:f2:ca:7f:08:6d:53:fc:07:02:44:24:c6:
                    b4:34:4c:8c:04:fe:33:0e:40:e2:20:ba:02:73:5a:
                    f7:f5:4f:63:6e:cc:c6:b6:df:54:1d:37:39:7d:51:
                    36:26:5f:bd:dc:3f:a8:8b:6b:a2:ae:b6:9d:d6:21:
                    e7:df:41:b8:7a:28:2a:68:48:ca:a8:2d:ed:e1:e9:
                    46:5e:5a:72:6d:b4:84:38:87:91:fd:94:11:0b:28:
                    84:c6:c2:2f:2a:fb:01:f9:36:7a:09:75:d1:33:88:
                    3c:73:41:5b:c8:bf:94:89:70:a1:f0:c0:b9:2e:50:
                    53:1e:b1:17:64:69:f4:2d:81:e0:a9:0d:0e:32:e9:
                    ba:55:8a:85:f1:1b:6f:49:79:b4:7f:88:c3:0d:3e:
                    54:88:9b:3d:1f:38:8c:04:f3:ee:6a:63:2b:f5:c6:
                    db:b4:83:aa:c4:78:41:3a:7d:4b:e1:c8:3e:71:ca:
                    1b:61:59:ea:c6:c4:ca:32:5e:c9:e9:bf:12:29:e6:
                    c6:c3:63:fe:a0:55:da:7a:f1:60:98:4d:26:ed:fa:
                    70:2d
                Exponent: 65537 (0x10001)
        X509v3 extensions:
            X509v3 Key Usage: 
                Digital Signature, Key Encipherment
            X509v3 Basic Constraints: 
                CA:FALSE
            Netscape Cert Type: 
                SSL Server
            Netscape Comment: 
                OpenSSL Generated Server Certificate
            X509v3 Subject Key Identifier: 
                53:3F:ED:5D:09:07:B3:65:7B:AB:45:C9:24:5B:09:77:80:0A:96:ED
            X509v3 Authority Key Identifier: 
                keyid:F4:A7:C0:CC:91:46:AF:64:F3:91:F2:27:F8:C8:B2:6F:8A:87:32:73
                DirName:/C=DE/ST=Hessen/O=privacyidea/CN=CA001
                serial:FB:C8:EB:AC:83:CD:12:07

            X509v3 Extended Key Usage: 
                TLS Web Server Authentication
    Signature Algorithm: sha256WithRSAEncryption
         20:3b:bb:2a:ca:2e:68:a3:90:04:14:39:5c:bf:f8:0d:64:e7:
         96:2a:de:59:c2:e5:32:ac:e6:17:56:05:b0:f3:54:71:c4:b6:
         38:c3:b8:6c:a6:c4:ee:4d:53:ac:4b:d1:cd:3a:53:9e:d4:6a:
         cd:7a:f5:e7:51:4a:3a:d0:af:8f:e5:5f:76:df:22:25:74:e0:
         10:21:ec:54:15:3b:5a:7e:9a:9f:a6:ca:ca:a2:0b:42:db:c9:
         c5:7c:cb:f4:5f:77:23:08:59:5d:ce:72:b6:50:df:ea:dc:23:
         34:f4:f3:b1:8d:b6:b6:e7:61:49:be:4d:33:5c:ce:a9:0f:46:
         e0:07:a2:0a:27:46:1a:76:43:45:cb:c0:12:ce:7e:65:6e:d0:
         79:07:f4:c7:74:04:00:fd:ff:d3:ed:2d:c2:ed:06:10:87:65:
         c7:1a:42:eb:f6:8c:b5:4d:ff:d4:38:8d:6b:35:b3:db:72:21:
         69:34:ed:0f:81:ca:a2:58:08:39:90:1e:9e:4a:ae:c5:96:90:
         87:5e:e6:ae:a2:3a:68:ca:1f:4c:07:01:46:57:b4:9d:e8:2f:
         fc:10:2a:50:ee:02:d8:04:e7:0d:63:45:49:6c:df:34:1c:5d:
         30:f2:a0:c3:9e:26:32:2b:fc:57:92:7a:2f:f7:f5:18:6f:8e:
         7e:77:d6:dd
-----BEGIN CERTIFICATE-----
MIIEJjCCAw6gAwIBAgIEEAAA0TANBgkqhkiG9w0BAQsFADBEMQswCQYDVQQGEwJE
RTEPMA0GA1UECAwGSGVzc2VuMRQwEgYDVQQKDAtwcml2YWN5aWRlYTEOMAwGA1UE
AwwFQ0EwMDEwHhcNMTgwOTIxMTkzMzEwWhcNMTkwOTIxMTkzMzEwWjBUMQswCQYD
VQQGEwJERTEPMA0GA1UECAwGSGVzc2VuMRQwEgYDVQQKDAtwcml2YWN5aWRlYTEe
MBwGA1UEAwwVcmVxdWVzdGVyLmxvY2FsZG9tYWluMIIBIjANBgkqhkiG9w0BAQEF
AAOCAQ8AMIIBCgKCAQEAzb4UT/rOAT9CIhsdnK/dktJ/22y3PjlDQ2sTA/EF9Ad0
vHZpKAuvGY7X/OPNxljyyn8IbVP8BwJEJMa0NEyMBP4zDkDiILoCc1r39U9jbszG
tt9UHTc5fVE2Jl+93D+oi2uirrad1iHn30G4eigqaEjKqC3t4elGXlpybbSEOIeR
/ZQRCyiExsIvKvsB+TZ6CXXRM4g8c0FbyL+UiXCh8MC5LlBTHrEXZGn0LYHgqQ0O
Mum6VYqF8RtvSXm0f4jDDT5UiJs9HziMBPPuamMr9cbbtIOqxHhBOn1L4cg+ccob
YVnqxsTKMl7J6b8SKebGw2P+oFXaevFgmE0m7fpwLQIDAQABo4IBDjCCAQowCwYD
VR0PBAQDAgWgMAkGA1UdEwQCMAAwEQYJYIZIAYb4QgEBBAQDAgZAMDMGCWCGSAGG
+EIBDQQmFiRPcGVuU1NMIEdlbmVyYXRlZCBTZXJ2ZXIgQ2VydGlmaWNhdGUwHQYD
VR0OBBYEFFM/7V0JB7Nle6tFySRbCXeACpbtMHQGA1UdIwRtMGuAFPSnwMyRRq9k
85HyJ/jIsm+KhzJzoUikRjBEMQswCQYDVQQGEwJERTEPMA0GA1UECAwGSGVzc2Vu
MRQwEgYDVQQKDAtwcml2YWN5aWRlYTEOMAwGA1UEAwwFQ0EwMDGCCQD7yOusg80S
BzATBgNVHSUEDDAKBggrBgEFBQcDATANBgkqhkiG9w0BAQsFAAOCAQEAIDu7Ksou
aKOQBBQ5XL/4DWTnlireWcLlMqzmF1YFsPNUccS2OMO4bKbE7k1TrEvRzTpTntRq
zXr151FKOtCvj+Vfdt8iJXTgECHsVBU7Wn6an6bKyqILQtvJxXzL9F93IwhZXc5y
tlDf6twjNPTzsY22tudhSb5NM1zOqQ9G4AeiCidGGnZDRcvAEs5+ZW7QeQf0x3QE
AP3/0+0twu0GEIdlxxpC6/aMtU3/1DiNazWz23IhaTTtD4HKolgIOZAenkquxZaQ
h17mrqI6aMofTAcBRle0negv/BAqUO4C2ATnDWNFSWzfNBxdMPKgw54mMiv8V5J6
L/f1GG+OfnfW3Q==
-----END CERTIFICATE-----
