Certificate:
    Data:
        Version: 3 (0x2)
        Serial Number: 268435669 (0x100000d5)
    Signature Algorithm: sha256WithRSAEncryption
        Issuer: C=DE, ST=Hessen, O=privacyidea, CN=CA001
        Validity
            Not Before: Sep 21 19:36:33 2018 GMT
            Not After : Sep 21 19:36:33 2019 GMT
        Subject: C=DE, ST=Hessen, O=privacyidea, CN=requester.localdomain
        Subject Public Key Info:
            Public Key Algorithm: rsaEncryption
                Public-Key: (2048 bit)
                Modulus:
                    00:cd:be:14:4f:fa:ce:01:3f:42:22:1b:1d:9c:af:
                    dd:92:d2:7f:db:6c:b7:3e:39:43:43:6b:13:03:f1:
                    05:f4:07:74:bc:76:69:28:0b:af:19:8e:d7:fc:e3:
                    cd:c6:58:f2:ca:7f:08:6d:53:fc:07:02:44:24:c6:
                    b4:34:4c:8c:04:fe:33:0e:40:e2:20:ba:02:73:5a:
                    f7:f5:4f:63:6e:cc:c6:b6:df:54:1d:37:39:7d:51:
                    36:26:5f:bd:dc:3f:a8:8b:6b:a2:ae:b6:9d:d6:21:
                    e7:df:41:b8:7a:28:2a:68:48:ca:a8:2d:ed:e1:e9:
                    46:5e:5a:72:6d:b4:84:38:87:91:fd:94:11:0b:28:
                    84:c6:c2:2f:2a:fb:01:f9:36:7a:09:75:d1:33:88:
                    3c:73:41:5b:c8:bf:94:89:70:a1:f0:c0:b9:2e:50:
                    53:1e:b1:17:64:69:f4:2d:81:e0:a9:0d:0e:32:e9:
                    ba:55:8a:85:f1:1b:6f:49:79:b4:7f:88:c3:0d:3e:
                    54:88:9b:3d:1f:38:8c:04:f3:ee:6a:63:2b:f5:c6:
                    db:b4:83:aa:c4:78:41:3a:7d:4b:e1:c8:3e:71:ca:
                    1b:61:59:ea:c6:c4:ca:32:5e:c9:e9:bf:12:29:e6:
                    c6:c3:63:fe:a0:55:da:7a:f1:60:98:4d:26:ed:fa:
                    70:2d
                Exponent: 65537 (0x10001)
        X509v3 extensions:
            X509v3 Key Usage: 
                Digital Signature, Key Encipherment
            X509v3 Basic Constraints: 
                CA:FALSE
            Netscape Cert Type: 
                SSL Server
            Netscape Comment: 
                OpenSSL Generated Server Certificate
            X509v3 Subject Key Identifier: 
                53:3F:ED:5D:09:07:B3:65:7B:AB:45:C9:24:5B:09:77:80:0A:96:ED
            X509v3 Authority Key Identifier: 
                keyid:F4:A7:C0:CC:91:46:AF:64:F3:91:F2:27:F8:C8:B2:6F:8A:87:32:73
                DirName:/C=DE/ST=Hessen/O=privacyidea/CN=CA001
                serial:FB:C8:EB:AC:83:CD:12:07

            X509v3 Extended Key Usage: 
                TLS Web Server Authentication
    Signature Algorithm: sha256WithRSAEncryption
         45:7c:ab:df:fa:48:4f:c2:5c:91:f1:5e:3f:9e:04:ac:75:61:
         0b:2e:10:f5:3a:94:7e:5b:01:26:cb:1c:6b:11:d6:33:7f:26:
         8c:5c:69:06:7a:85:9b:35:b3:0a:81:3d:f2:ef:1a:94:f8:24:
         44:25:f7:ed:d7:50:68:32:75:e6:08:17:6c:fb:4c:dd:d6:d1:
         0b:dc:88:a6:9c:2a:4a:9a:8a:76:fd:98:f0:00:0d:f3:dc:b4:
         51:e1:19:cb:7a:4c:41:93:7d:1e:e4:6a:80:eb:d5:c6:b2:fc:
         8b:71:30:7f:f2:c6:8e:f7:db:82:b5:f3:2d:61:6e:8b:91:16:
         cd:0c:c4:b1:4b:2e:6b:d0:73:df:2f:2c:1d:74:c2:44:47:60:
         42:3d:11:22:81:bd:28:49:8c:81:9c:8b:3c:7d:dc:95:83:6b:
         2e:6a:86:22:57:3b:f9:c5:cc:ab:2b:d9:46:0f:da:c2:29:7e:
         be:e1:1e:62:c7:2b:5a:de:c2:33:84:88:dc:26:13:ef:47:98:
         7e:73:4e:1f:89:e1:86:1d:c5:25:61:bd:e1:db:16:7b:c3:b2:
         c5:3e:f5:e9:c4:56:50:7f:e8:1e:c3:1a:6f:be:cc:b4:dd:b5:
         37:0e:db:37:94:a2:35:44:f9:77:2f:70:a4:30:91:e7:26:a4:
         86:a5:f1:07
-----BEGIN CERTIFICATE-----
MIIEJjCCAw6gAwIBAgIEEAAA1TANBgkqhkiG9w0BAQsFADBEMQswCQYDVQQGEwJE
RTEPMA0GA1UECAwGSGVzc2VuMRQwEgYDVQQKDAtwcml2YWN5aWRlYTEOMAwGA1UE
AwwFQ0EwMDEwHhcNMTgwOTIxMTkzNjMzWhcNMTkwOTIxMTkzNjMzWjBUMQswCQYD
VQQGEwJERTEPMA0GA1UECAwGSGVzc2VuMRQwEgYDVQQKDAtwcml2YWN5aWRlYTEe
MBwGA1UEAwwVcmVxdWVzdGVyLmxvY2FsZG9tYWluMIIBIjANBgkqhkiG9w0BAQEF
AAOCAQ8AMIIBCgKCAQEAzb4UT/rOAT9CIhsdnK/dktJ/22y3PjlDQ2sTA/EF9Ad0
vHZpKAuvGY7X/OPNxljyyn8IbVP8BwJEJMa0NEyMBP4zDkDiILoCc1r39U9jbszG
tt9UHTc5fVE2Jl+93D+oi2uirrad1iHn30G4eigqaEjKqC3t4elGXlpybbSEOIeR
/ZQRCyiExsIvKvsB+TZ6CXXRM4g8c0FbyL+UiXCh8MC5LlBTHrEXZGn0LYHgqQ0O
Mum6VYqF8RtvSXm0f4jDDT5UiJs9HziMBPPuamMr9cbbtIOqxHhBOn1L4cg+ccob
YVnqxsTKMl7J6b8SKebGw2P+oFXaevFgmE0m7fpwLQIDAQABo4IBDjCCAQowCwYD
VR0PBAQDAgWgMAkGA1UdEwQCMAAwEQYJYIZIAYb4QgEBBAQDAgZAMDMGCWCGSAGG
+EIBDQQmFiRPcGVuU1NMIEdlbmVyYXRlZCBTZXJ2ZXIgQ2VydGlmaWNhdGUwHQYD
VR0OBBYEFFM/7V0JB7Nle6tFySRbCXeACpbtMHQGA1UdIwRtMGuAFPSnwMyRRq9k
85HyJ/jIsm+KhzJzoUikRjBEMQswCQYDVQQGEwJERTEPMA0GA1UECAwGSGVzc2Vu
MRQwEgYDVQQKDAtwcml2YWN5aWRlYTEOMAwGA1UEAwwFQ0EwMDGCCQD7yOusg80S
BzATBgNVHSUEDDAKBggrBgEFBQcDATANBgkqhkiG9w0BAQsFAAOCAQEARXyr3/pI
T8JckfFeP54ErHVhCy4Q9TqUflsBJsscaxHWM38mjFxpBnqFmzWzCoE98u8alPgk
RCX37ddQaDJ15ggXbPtM3dbRC9yIppwqSpqKdv2Y8AAN89y0UeEZy3pMQZN9HuRq
gOvVxrL8i3Ewf/LGjvfbgrXzLWFui5EWzQzEsUsua9Bz3y8sHXTCREdgQj0RIoG9
KEmMgZyLPH3clYNrLmqGIlc7+cXMqyvZRg/awil+vuEeYscrWt7CM4SI3CYT70eY
fnNOH4nhhh3FJWG94dsWe8OyxT716cRWUH/oHsMab77MtN21Nw7bN5SiNUT5dy9w
pDCR5yakhqXxBw==
-----END CERTIFICATE-----
