Certificate:
    Data:
        Version: 3 (0x2)
        Serial Number: 268435667 (0x100000d3)
    Signature Algorithm: sha256WithRSAEncryption
        Issuer: C=DE, ST=Hessen, O=privacyidea, CN=CA001
        Validity
            Not Before: Sep 21 19:33:10 2018 GMT
            Not After : Sep 21 19:33:10 2019 GMT
        Subject: CN=Steve Test/emailAddress=steve@openssl.org
        Subject Public Key Info:
            Public Key Algorithm: rsaEncryption
                Public-Key: (2048 bit)
                Modulus:
                    00:d2:81:89:20:51:48:0f:73:f4:11:32:24:d5:1f:
                    1c:fd:5c:f5:b6:e6:c5:f0:52:81:dc:d2:af:66:4a:
                    7c:93:31:61:5c:af:d1:6d:06:70:03:60:7c:72:0c:
                    88:dd:49:cd:9e:02:6c:d2:5a:d7:53:0f:f3:da:be:
                    69:64:b5:0f:0c:00:e3:b3:50:47:a3:b3:9b:ba:13:
                    50:d6:58:5a:4b:ab:39:e0:11:ca:0a:27:67:03:78:
                    22:66:6d:92:1e:1b:5c:49:ae:e6:6b:d1:8e:3b:9d:
                    06:d3:c6:ac:4d:53:43:10:ab:e8:96:c1:87:82:97:
                    99:8f:20:d3:99:12:37:31:84:e1:8a:ff:29:03:5f:
                    22:90:3e:7f:9b:e0:20:c1:ad:dc:ae:4c:39:1a:31:
                    96:17:02:8c:b2:d9:b4:0d:20:12:9b:7d:86:54:fd:
                    33:fd:c1:2a:62:46:f8:60:96:cf:6e:01:6f:22:df:
                    13:47:e7:97:ec:05:72:23:a3:62:f8:fa:ef:ac:9c:
                    72:f0:37:cb:2f:37:cf:90:a8:27:51:86:c6:d7:78:
                    08:8f:7e:25:a2:15:70:a2:fb:1c:b6:15:5e:a0:97:
                    8b:81:4c:09:28:8a:27:3b:94:bc:71:db:5b:71:37:
                    9a:2b:16:e0:6f:b5:c9:f5:4b:4f:20:ba:65:cf:af:
                    ad:ad
                Exponent: 65537 (0x10001)
        X509v3 extensions:
            X509v3 Key Usage: 
                Digital Signature, Key Encipherment
            X509v3 Basic Constraints: 
                CA:FALSE
            Netscape Cert Type: 
                SSL Server
            Netscape Comment: 
                OpenSSL Generated Server Certificate
            X509v3 Subject Key Identifier: 
                E5:25:6D:3E:AF:0D:DD:3F:4C:F2:45:19:39:D5:14:DB:7E:9C:C0:AD
            X509v3 Authority Key Identifier: 
                keyid:F4:A7:C0:CC:91:46:AF:64:F3:91:F2:27:F8:C8:B2:6F:8A:87:32:73
                DirName:/C=DE/ST=Hessen/O=privacyidea/CN=CA001
                serial:FB:C8:EB:AC:83:CD:12:07

            X509v3 Extended Key Usage: 
                TLS Web Server Authentication
    Signature Algorithm: sha256WithRSAEncryption
         11:76:aa:f4:a9:f5:9e:71:9e:8f:37:5b:97:de:7c:f7:e0:18:
         9c:03:1c:8c:09:f3:95:9b:10:4d:f4:4b:91:91:bb:ef:4b:7f:
         7f:5e:4c:76:14:5c:8d:b2:d6:fe:64:ef:e5:68:6f:0b:cb:fc:
         ab:2b:78:00:10:21:92:05:3c:90:0b:62:4c:49:e7:4c:d9:a3:
         57:2e:b3:a3:91:a6:f9:30:ef:0f:32:25:0b:d7:a6:e4:6d:7b:
         17:7a:9a:ee:6b:4c:38:51:92:93:f1:75:27:b7:5f:a2:da:44:
         e9:27:51:5f:ab:a4:ec:26:fe:da:ac:25:bd:03:6f:d3:f1:18:
         21:5e:0d:81:e1:9e:f1:c4:d4:6d:aa:33:3f:a1:20:c7:a0:1b:
         08:25:c4:48:b9:7f:ad:be:20:21:4a:88:8a:72:e0:eb:cc:e5:
         2f:83:a7:dd:f0:3b:8f:f8:19:12:d2:75:31:12:98:bc:a8:d1:
         7e:e2:1e:0a:19:21:a1:bc:43:cc:03:41:20:cd:14:8d:99:26:
         b9:64:d1:10:72:f6:6a:10:38:b9:13:88:ed:a2:92:0f:34:aa:
         27:64:03:e8:54:34:b5:48:f1:9b:fa:8d:97:f2:cc:db:6c:76:
         d0:48:9c:f5:ca:90:74:f2:32:e4:41:d9:00:44:55:c0:9f:5a:
         e0:29:22:ca
-----BEGIN CERTIFICATE-----
MIIECTCCAvGgAwIBAgIEEAAA0zANBgkqhkiG9w0BAQsFADBEMQswCQYDVQQGEwJE
RTEPMA0GA1UECAwGSGVzc2VuMRQwEgYDVQQKDAtwcml2YWN5aWRlYTEOMAwGA1UE
AwwFQ0EwMDEwHhcNMTgwOTIxMTkzMzEwWhcNMTkwOTIxMTkzMzEwWjA3MRMwEQYD
VQQDDApTdGV2ZSBUZXN0MSAwHgYJKoZIhvcNAQkBFhFzdGV2ZUBvcGVuc3NsLm9y
ZzCCASIwDQYJKoZIhvcNAQEBBQADggEPADCCAQoCggEBANKBiSBRSA9z9BEyJNUf
HP1c9bbmxfBSgdzSr2ZKfJMxYVyv0W0GcANgfHIMiN1JzZ4CbNJa11MP89q+aWS1
DwwA47NQR6Ozm7oTUNZYWkurOeARygonZwN4ImZtkh4bXEmu5mvRjjudBtPGrE1T
QxCr6JbBh4KXmY8g05kSNzGE4Yr/KQNfIpA+f5vgIMGt3K5MORoxlhcCjLLZtA0g
Ept9hlT9M/3BKmJG+GCWz24BbyLfE0fnl+wFciOjYvj676yccvA3yy83z5CoJ1GG
xtd4CI9+JaIVcKL7HLYVXqCXi4FMCSiKJzuUvHHbW3E3misW4G+1yfVLTyC6Zc+v
ra0CAwEAAaOCAQ4wggEKMAsGA1UdDwQEAwIFoDAJBgNVHRMEAjAAMBEGCWCGSAGG
+EIBAQQEAwIGQDAzBglghkgBhvhCAQ0EJhYkT3BlblNTTCBHZW5lcmF0ZWQgU2Vy
dmVyIENlcnRpZmljYXRlMB0GA1UdDgQWBBTlJW0+rw3dP0zyRRk51RTbfpzArTB0
BgNVHSMEbTBrgBT0p8DMkUavZPOR8if4yLJviocyc6FIpEYwRDELMAkGA1UEBhMC
REUxDzANBgNVBAgMBkhlc3NlbjEUMBIGA1UECgwLcHJpdmFjeWlkZWExDjAMBgNV
BAMMBUNBMDAxggkA+8jrrIPNEgcwEwYDVR0lBAwwCgYIKwYBBQUHAwEwDQYJKoZI
hvcNAQELBQADggEBABF2qvSp9Z5xno83W5fefPfgGJwDHIwJ85WbEE30S5GRu+9L
f39eTHYUXI2y1v5k7+VobwvL/KsreAAQIZIFPJALYkxJ50zZo1cus6ORpvkw7w8y
JQvXpuRtexd6mu5rTDhRkpPxdSe3X6LaROknUV+rpOwm/tqsJb0Db9PxGCFeDYHh
nvHE1G2qMz+hIMegGwglxEi5f62+ICFKiIpy4OvM5S+Dp93wO4/4GRLSdTESmLyo
0X7iHgoZIaG8Q8wDQSDNFI2ZJrlk0RBy9moQOLkTiO2ikg80qidkA+hUNLVI8Zv6
jZfyzNtsdtBInPXKkHTyMuRB2QBEVcCfWuApIso=
-----END CERTIFICATE-----
