Certificate:
    Data:
        Version: 3 (0x2)
        Serial Number: 268435668 (0x100000d4)
    Signature Algorithm: sha256WithRSAEncryption
        Issuer: C=DE, ST=Hessen, O=privacyidea, CN=CA001
        Validity
            Not Before: Sep 21 19:33:10 2018 GMT
            Not After : Oct 10 19:33:10 2020 GMT
        Subject: CN=Steve Test/emailAddress=steve@openssl.org
        Subject Public Key Info:
            Public Key Algorithm: rsaEncryption
                Public-Key: (2048 bit)
                Modulus:
                    00:d2:81:89:20:51:48:0f:73:f4:11:32:24:d5:1f:
                    1c:fd:5c:f5:b6:e6:c5:f0:52:81:dc:d2:af:66:4a:
                    7c:93:31:61:5c:af:d1:6d:06:70:03:60:7c:72:0c:
                    88:dd:49:cd:9e:02:6c:d2:5a:d7:53:0f:f3:da:be:
                    69:64:b5:0f:0c:00:e3:b3:50:47:a3:b3:9b:ba:13:
                    50:d6:58:5a:4b:ab:39:e0:11:ca:0a:27:67:03:78:
                    22:66:6d:92:1e:1b:5c:49:ae:e6:6b:d1:8e:3b:9d:
                    06:d3:c6:ac:4d:53:43:10:ab:e8:96:c1:87:82:97:
                    99:8f:20:d3:99:12:37:31:84:e1:8a:ff:29:03:5f:
                    22:90:3e:7f:9b:e0:20:c1:ad:dc:ae:4c:39:1a:31:
                    96:17:02:8c:b2:d9:b4:0d:20:12:9b:7d:86:54:fd:
                    33:fd:c1:2a:62:46:f8:60:96:cf:6e:01:6f:22:df:
                    13:47:e7:97:ec:05:72:23:a3:62:f8:fa:ef:ac:9c:
                    72:f0:37:cb:2f:37:cf:90:a8:27:51:86:c6:d7:78:
                    08:8f:7e:25:a2:15:70:a2:fb:1c:b6:15:5e:a0:97:
                    8b:81:4c:09:28:8a:27:3b:94:bc:71:db:5b:71:37:
                    9a:2b:16:e0:6f:b5:c9:f5:4b:4f:20:ba:65:cf:af:
                    ad:ad
                Exponent: 65537 (0x10001)
        X509v3 extensions:
            X509v3 Key Usage: 
                Digital Signature, Key Encipherment
            X509v3 Basic Constraints: 
                CA:FALSE
            Netscape Cert Type: 
                SSL Server
            Netscape Comment: 
                OpenSSL Generated Server Certificate
            X509v3 Subject Key Identifier: 
                E5:25:6D:3E:AF:0D:DD:3F:4C:F2:45:19:39:D5:14:DB:7E:9C:C0:AD
            X509v3 Authority Key Identifier: 
                keyid:F4:A7:C0:CC:91:46:AF:64:F3:91:F2:27:F8:C8:B2:6F:8A:87:32:73
                DirName:/C=DE/ST=Hessen/O=privacyidea/CN=CA001
                serial:FB:C8:EB:AC:83:CD:12:07

            X509v3 Extended Key Usage: 
                TLS Web Server Authentication
    Signature Algorithm: sha256WithRSAEncryption
         2a:d7:75:1a:ef:47:6d:e1:2e:a3:74:f7:50:df:28:03:59:83:
         ec:0a:04:2a:c2:ec:dc:6f:fa:e0:0d:2c:a2:93:dd:7d:96:d0:
         b7:70:98:2e:ad:f6:c6:b9:72:35:dc:06:2c:08:13:96:c8:7d:
         86:2e:5e:72:f4:af:96:27:21:26:b9:b7:f1:3d:ed:5a:56:77:
         d6:9e:b9:cf:6a:a3:db:9e:a8:73:3f:21:f2:be:7d:d3:cc:f7:
         46:f0:7f:91:69:e8:49:9e:96:89:c6:3b:1f:53:e7:b2:db:66:
         6d:57:74:e6:6e:29:40:34:2f:49:60:4c:a6:36:79:13:8b:43:
         b4:6f:a2:be:22:dd:83:3b:6d:4c:b3:60:8c:b7:d8:a2:9d:0e:
         fe:88:9f:96:16:eb:46:6b:e5:77:49:e0:53:eb:e7:79:48:c3:
         05:69:f6:42:70:39:30:d3:62:d1:e4:eb:c0:b4:bf:56:f0:47:
         a9:16:17:6d:f6:58:c4:93:1c:c3:9b:33:41:9e:ce:22:97:98:
         8c:9a:c9:4e:42:af:47:a7:78:60:85:5f:1d:b9:31:d6:01:1b:
         25:bd:02:fe:79:19:2e:08:fb:87:8b:86:fb:4a:93:5e:1b:bd:
         c4:cd:a9:40:64:c0:ea:27:8e:99:35:67:c5:aa:7d:6d:fc:d9:
         7f:19:7b:a5
-----BEGIN CERTIFICATE-----
MIIECTCCAvGgAwIBAgIEEAAA1DANBgkqhkiG9w0BAQsFADBEMQswCQYDVQQGEwJE
RTEPMA0GA1UECAwGSGVzc2VuMRQwEgYDVQQKDAtwcml2YWN5aWRlYTEOMAwGA1UE
AwwFQ0EwMDEwHhcNMTgwOTIxMTkzMzEwWhcNMjAxMDEwMTkzMzEwWjA3MRMwEQYD
VQQDDApTdGV2ZSBUZXN0MSAwHgYJKoZIhvcNAQkBFhFzdGV2ZUBvcGVuc3NsLm9y
ZzCCASIwDQYJKoZIhvcNAQEBBQADggEPADCCAQoCggEBANKBiSBRSA9z9BEyJNUf
HP1c9bbmxfBSgdzSr2ZKfJMxYVyv0W0GcANgfHIMiN1JzZ4CbNJa11MP89q+aWS1
DwwA47NQR6Ozm7oTUNZYWkurOeARygonZwN4ImZtkh4bXEmu5mvRjjudBtPGrE1T
QxCr6JbBh4KXmY8g05kSNzGE4Yr/KQNfIpA+f5vgIMGt3K5MORoxlhcCjLLZtA0g
Ept9hlT9M/3BKmJG+GCWz24BbyLfE0fnl+wFciOjYvj676yccvA3yy83z5CoJ1GG
xtd4CI9+JaIVcKL7HLYVXqCXi4FMCSiKJzuUvHHbW3E3misW4G+1yfVLTyC6Zc+v
ra0CAwEAAaOCAQ4wggEKMAsGA1UdDwQEAwIFoDAJBgNVHRMEAjAAMBEGCWCGSAGG
+EIBAQQEAwIGQDAzBglghkgBhvhCAQ0EJhYkT3BlblNTTCBHZW5lcmF0ZWQgU2Vy
dmVyIENlcnRpZmljYXRlMB0GA1UdDgQWBBTlJW0+rw3dP0zyRRk51RTbfpzArTB0
BgNVHSMEbTBrgBT0p8DMkUavZPOR8if4yLJviocyc6FIpEYwRDELMAkGA1UEBhMC
REUxDzANBgNVBAgMBkhlc3NlbjEUMBIGA1UECgwLcHJpdmFjeWlkZWExDjAMBgNV
BAMMBUNBMDAxggkA+8jrrIPNEgcwEwYDVR0lBAwwCgYIKwYBBQUHAwEwDQYJKoZI
hvcNAQELBQADggEBACrXdRrvR23hLqN091DfKANZg+wKBCrC7Nxv+uANLKKT3X2W
0LdwmC6t9sa5cjXcBiwIE5bIfYYuXnL0r5YnISa5t/E97VpWd9aeuc9qo9ueqHM/
IfK+fdPM90bwf5Fp6EmelonGOx9T57LbZm1XdOZuKUA0L0lgTKY2eROLQ7Rvor4i
3YM7bUyzYIy32KKdDv6In5YW60Zr5XdJ4FPr53lIwwVp9kJwOTDTYtHk68C0v1bw
R6kWF232WMSTHMObM0GeziKXmIyayU5Cr0eneGCFXx25MdYBGyW9Av55GS4I+4eL
hvtKk14bvcTNqUBkwOonjpk1Z8WqfW382X8Ze6U=
-----END CERTIFICATE-----
