Certificate:
    Data:
        Version: 3 (0x2)
        Serial Number: 268435670 (0x100000d6)
    Signature Algorithm: sha256WithRSAEncryption
        Issuer: C=DE, ST=Hessen, O=privacyidea, CN=CA001
        Validity
            Not Before: Sep 21 19:36:33 2018 GMT
            Not After : Sep 21 19:36:33 2019 GMT
        Subject: OU=realm1, CN=cornelius/emailAddress=user@localhost.localdomain
        Subject Public Key Info:
            Public Key Algorithm: rsaEncryption
                Public-Key: (2048 bit)
                Modulus:
                    00:ae:e3:92:89:54:98:30:fd:44:b5:c7:d1:b6:11:
                    90:b6:50:bd:9e:ec:8b:6f:0e:ea:9d:d4:b4:16:45:
                    f9:28:c5:88:8a:f1:4e:18:bd:b4:72:cd:89:a0:3f:
                    a9:d8:bd:b1:cb:3d:a8:e9:9e:28:88:f4:eb:f2:1e:
                    34:0d:01:09:12:5b:0e:6f:35:74:6c:10:21:1c:0e:
                    7f:44:56:12:fd:fb:de:43:46:a8:87:6d:e9:ea:8f:
                    74:23:38:a6:5b:31:b9:db:e9:ad:63:1f:93:fa:92:
                    08:bd:34:a1:b2:83:83:35:50:f5:16:56:d4:df:ca:
                    48:5d:25:6d:d5:be:41:93:df:a1:44:1d:d0:61:a3:
                    35:90:ab:a8:99:e5:e4:f7:94:70:de:e1:c4:44:41:
                    94:0e:13:02:22:2d:3d:f7:96:08:2c:9e:ca:9b:ee:
                    6e:f2:45:85:37:05:6b:da:50:b2:db:27:4a:06:c1:
                    2d:4c:45:fb:15:2f:78:bf:f1:ac:78:74:4b:21:01:
                    68:9a:04:ea:15:97:fa:ed:f1:61:f6:81:a1:64:e9:
                    15:e6:d9:26:9e:9e:c4:6b:c9:07:87:1f:a0:ce:77:
                    e2:b5:bd:b3:11:56:b8:34:7c:65:43:a1:8d:62:e0:
                    8e:63:a0:de:4d:5f:c1:73:d9:58:1b:4f:e6:01:24:
                    8f:4b
                Exponent: 65537 (0x10001)
        X509v3 extensions:
            X509v3 Key Usage: 
                Digital Signature, Key Encipherment
            X509v3 Basic Constraints: 
                CA:FALSE
            Netscape Cert Type: 
                SSL Server
            Netscape Comment: 
                OpenSSL Generated Server Certificate
            X509v3 Subject Key Identifier: 
                B2:72:E7:8A:9A:F8:0D:A2:D2:E9:33:1E:E9:A1:34:3B:EC:AF:54:C6
            X509v3 Authority Key Identifier: 
                keyid:F4:A7:C0:CC:91:46:AF:64:F3:91:F2:27:F8:C8:B2:6F:8A:87:32:73
                DirName:/C=DE/ST=Hessen/O=privacyidea/CN=CA001
                serial:FB:C8:EB:AC:83:CD:12:07

            X509v3 Extended Key Usage: 
                TLS Web Server Authentication
    Signature Algorithm: sha256WithRSAEncryption
         00:d0:16:3b:7a:2a:21:0d:2e:81:d3:04:9d:f0:44:06:ab:0f:
         e7:70:4f:6b:0f:0f:9d:31:15:ba:e0:d5:2c:f5:65:5d:57:a7:
         e2:11:0d:96:f3:06:9d:1b:0d:f8:42:40:4c:13:bf:4c:53:a6:
         04:03:b6:9f:73:77:2c:d7:7a:27:4e:1b:fe:63:fa:6a:71:71:
         63:3c:b4:8c:6c:26:0b:cb:5b:71:e7:a3:2e:67:8c:44:94:dd:
         e1:75:d1:62:17:b4:cd:54:7f:12:47:84:24:2f:fb:3f:e1:02:
         e9:9e:79:84:0a:a5:04:52:35:3a:0b:9d:13:4e:17:35:a1:88:
         83:e8:8c:8f:c3:e7:00:29:a2:eb:c3:1c:6b:7e:f1:b0:73:c6:
         14:3d:9d:5f:29:f9:fa:82:f9:d5:9e:5f:5e:18:ef:af:58:0a:
         92:be:8d:d5:74:42:3b:e7:b2:e6:10:40:20:5f:a3:d1:6c:7e:
         94:8b:73:17:af:9a:3d:c9:14:86:68:01:21:aa:07:01:84:93:
         e5:5d:af:05:98:b8:38:7d:95:0c:c8:02:5f:e9:09:7c:56:5e:
         63:b7:eb:88:9d:0a:e4:b2:fc:a9:57:22:c9:52:0d:4c:b3:7b:
         43:f4:e3:82:9e:19:9b:df:b4:a2:86:40:9e:61:e7:88:a9:7d:
         e4:a0:c1:5a
-----BEGIN CERTIFICATE-----
MIIEIjCCAwqgAwIBAgIEEAAA1jANBgkqhkiG9w0BAQsFADBEMQswCQYDVQQGEwJE
RTEPMA0GA1UECAwGSGVzc2VuMRQwEgYDVQQKDAtwcml2YWN5aWRlYTEOMAwGA1UE
AwwFQ0EwMDEwHhcNMTgwOTIxMTkzNjMzWhcNMTkwOTIxMTkzNjMzWjBQMQ8wDQYD
VQQLDAZyZWFsbTExEjAQBgNVBAMMCWNvcm5lbGl1czEpMCcGCSqGSIb3DQEJARYa
dXNlckBsb2NhbGhvc3QubG9jYWxkb21haW4wggEiMA0GCSqGSIb3DQEBAQUAA4IB
DwAwggEKAoIBAQCu45KJVJgw/US1x9G2EZC2UL2e7ItvDuqd1LQWRfkoxYiK8U4Y
vbRyzYmgP6nYvbHLPajpniiI9OvyHjQNAQkSWw5vNXRsECEcDn9EVhL9+95DRqiH
benqj3QjOKZbMbnb6a1jH5P6kgi9NKGyg4M1UPUWVtTfykhdJW3VvkGT36FEHdBh
ozWQq6iZ5eT3lHDe4cREQZQOEwIiLT33lggsnsqb7m7yRYU3BWvaULLbJ0oGwS1M
RfsVL3i/8ax4dEshAWiaBOoVl/rt8WH2gaFk6RXm2SaensRryQeHH6DOd+K1vbMR
Vrg0fGVDoY1i4I5joN5NX8Fz2VgbT+YBJI9LAgMBAAGjggEOMIIBCjALBgNVHQ8E
BAMCBaAwCQYDVR0TBAIwADARBglghkgBhvhCAQEEBAMCBkAwMwYJYIZIAYb4QgEN
BCYWJE9wZW5TU0wgR2VuZXJhdGVkIFNlcnZlciBDZXJ0aWZpY2F0ZTAdBgNVHQ4E
FgQUsnLnipr4DaLS6TMe6aE0O+yvVMYwdAYDVR0jBG0wa4AU9KfAzJFGr2TzkfIn
+Miyb4qHMnOhSKRGMEQxCzAJBgNVBAYTAkRFMQ8wDQYDVQQIDAZIZXNzZW4xFDAS
BgNVBAoMC3ByaXZhY3lpZGVhMQ4wDAYDVQQDDAVDQTAwMYIJAPvI66yDzRIHMBMG
A1UdJQQMMAoGCCsGAQUFBwMBMA0GCSqGSIb3DQEBCwUAA4IBAQAA0BY7eiohDS6B
0wSd8EQGqw/ncE9rDw+dMRW64NUs9WVdV6fiEQ2W8wadGw34QkBME79MU6YEA7af
c3cs13onThv+Y/pqcXFjPLSMbCYLy1tx56MuZ4xElN3hddFiF7TNVH8SR4QkL/s/
4QLpnnmECqUEUjU6C50TThc1oYiD6IyPw+cAKaLrwxxrfvGwc8YUPZ1fKfn6gvnV
nl9eGO+vWAqSvo3VdEI757LmEEAgX6PRbH6Ui3MXr5o9yRSGaAEhqgcBhJPlXa8F
mLg4fZUMyAJf6Ql8Vl5jt+uInQrksvypVyLJUg1Ms3tD9OOCnhmb37SihkCeYeeI
qX3koMFa
-----END CERTIFICATE-----
