Certificate:
    Data:
        Version: 3 (0x2)
        Serial Number: 268435666 (0x100000d2)
    Signature Algorithm: sha256WithRSAEncryption
        Issuer: C=DE, ST=Hessen, O=privacyidea, CN=CA001
        Validity
            Not Before: Sep 21 19:33:10 2018 GMT
            Not After : Sep 21 19:33:10 2019 GMT
        Subject: C=DE, ST=Hessen, O=privacyidea, CN=usercert
        Subject Public Key Info:
            Public Key Algorithm: rsaEncryption
                Public-Key: (2048 bit)
                Modulus:
                    00:dc:2f:d1:5f:29:97:d4:7c:c3:53:c8:30:bd:4b:
                    67:70:2c:24:6b:b8:5e:eb:21:7a:48:12:56:7c:81:
                    5c:48:75:b6:68:eb:f6:f2:98:4e:50:51:d1:7f:6c:
                    73:f3:0a:a7:ae:be:48:5e:e5:d6:e1:d9:2a:7c:32:
                    6e:4e:fd:08:f6:5a:54:49:23:73:c3:b9:07:18:d1:
                    ef:b3:ac:f8:8a:dc:94:96:a4:90:3a:8e:74:df:e6:
                    0d:37:1b:bd:5b:b7:25:1a:56:39:da:6f:91:aa:5e:
                    1c:74:f3:f9:7c:14:01:83:12:65:76:c7:bb:fe:36:
                    5b:95:e9:72:65:83:ed:3e:98:30:71:fa:87:dd:a3:
                    36:5a:30:03:2e:26:e0:61:d1:bf:02:3f:b6:06:1f:
                    4a:89:28:1c:5c:a2:ff:4e:be:94:e6:8c:e0:da:82:
                    f1:9d:29:32:48:30:73:b4:04:f6:42:1e:be:f7:e2:
                    32:32:27:3c:9d:89:2f:70:3e:85:9a:6f:5c:c5:09:
                    c0:8c:32:2f:72:22:c9:d2:95:1f:b6:ac:72:60:72:
                    b7:82:4d:6b:ce:5b:e3:00:d0:d2:2f:58:c6:e0:10:
                    e5:51:ca:4d:3b:2e:e6:7e:ab:84:d6:56:f1:93:35:
                    a0:93:64:26:81:75:2f:91:b5:16:06:38:0b:db:cc:
                    2d:07
                Exponent: 65537 (0x10001)
        X509v3 extensions:
            X509v3 Key Usage: 
                Digital Signature, Key Encipherment
            X509v3 Basic Constraints: 
                CA:FALSE
            Netscape Cert Type: 
                SSL Server
            Netscape Comment: 
                OpenSSL Generated Server Certificate
            X509v3 Subject Key Identifier: 
                FC:14:D1:F0:4B:8D:00:90:F2:F5:B8:71:9E:4E:97:C3:92:54:AD:0B
            X509v3 Authority Key Identifier: 
                keyid:F4:A7:C0:CC:91:46:AF:64:F3:91:F2:27:F8:C8:B2:6F:8A:87:32:73
                DirName:/C=DE/ST=Hessen/O=privacyidea/CN=CA001
                serial:FB:C8:EB:AC:83:CD:12:07

            X509v3 Extended Key Usage: 
                TLS Web Server Authentication
    Signature Algorithm: sha256WithRSAEncryption
         7c:0d:d6:76:bc:2e:7c:88:96:32:f8:d0:39:68:b5:17:a5:25:
         4f:4f:92:ac:2f:d6:72:9d:38:fa:14:e4:ab:db:b5:50:44:89:
         d3:97:b1:ac:07:40:3d:68:62:90:d0:b1:f9:29:e4:bd:10:79:
         41:33:e7:ce:75:1d:bd:8a:0e:37:7e:18:a5:1e:c2:42:86:cf:
         d7:3c:b3:71:e3:72:3f:d5:a0:01:9a:45:93:ec:ef:b8:29:68:
         f0:a9:b1:f4:ed:9b:61:bc:25:51:dd:84:7b:c3:ec:ff:42:ed:
         72:be:65:f7:14:82:ec:4d:93:99:4c:94:20:d9:b2:22:79:9e:
         88:99:4b:03:50:c4:5e:98:2b:47:71:9f:22:86:ed:75:b0:49:
         e2:90:86:00:1d:6d:fa:fe:43:85:23:13:19:8c:5b:e2:23:d4:
         49:fe:ae:aa:cd:cd:1b:b5:2f:22:3c:36:46:e4:5b:f5:ed:4f:
         cd:23:3f:f5:e6:b9:ac:4b:43:cd:bc:4b:bf:aa:57:71:a2:af:
         72:f6:01:b9:53:25:a3:3d:48:2f:cc:aa:8f:67:0a:a9:38:67:
         f9:19:40:98:37:67:20:a1:77:a5:64:f1:07:e2:8f:a2:d6:a4:
         3b:02:e9:7a:c9:54:cc:f1:cb:9c:f8:35:26:81:c3:66:25:c4:
         7b:66:22:c1
-----BEGIN CERTIFICATE-----
MIIEGTCCAwGgAwIBAgIEEAAA0jANBgkqhkiG9w0BAQsFADBEMQswCQYDVQQGEwJE
RTEPMA0GA1UECAwGSGVzc2VuMRQwEgYDVQQKDAtwcml2YWN5aWRlYTEOMAwGA1UE
AwwFQ0EwMDEwHhcNMTgwOTIxMTkzMzEwWhcNMTkwOTIxMTkzMzEwWjBHMQswCQYD
VQQGEwJERTEPMA0GA1UECAwGSGVzc2VuMRQwEgYDVQQKDAtwcml2YWN5aWRlYTER
MA8GA1UEAwwIdXNlcmNlcnQwggEiMA0GCSqGSIb3DQEBAQUAA4IBDwAwggEKAoIB
AQDcL9FfKZfUfMNTyDC9S2dwLCRruF7rIXpIElZ8gVxIdbZo6/bymE5QUdF/bHPz
Cqeuvkhe5dbh2Sp8Mm5O/Qj2WlRJI3PDuQcY0e+zrPiK3JSWpJA6jnTf5g03G71b
tyUaVjnab5GqXhx08/l8FAGDEmV2x7v+NluV6XJlg+0+mDBx+ofdozZaMAMuJuBh
0b8CP7YGH0qJKBxcov9OvpTmjODagvGdKTJIMHO0BPZCHr734jIyJzydiS9wPoWa
b1zFCcCMMi9yIsnSlR+2rHJgcreCTWvOW+MA0NIvWMbgEOVRyk07LuZ+q4TWVvGT
NaCTZCaBdS+RtRYGOAvbzC0HAgMBAAGjggEOMIIBCjALBgNVHQ8EBAMCBaAwCQYD
VR0TBAIwADARBglghkgBhvhCAQEEBAMCBkAwMwYJYIZIAYb4QgENBCYWJE9wZW5T
U0wgR2VuZXJhdGVkIFNlcnZlciBDZXJ0aWZpY2F0ZTAdBgNVHQ4EFgQU/BTR8EuN
AJDy9bhxnk6Xw5JUrQswdAYDVR0jBG0wa4AU9KfAzJFGr2TzkfIn+Miyb4qHMnOh
SKRGMEQxCzAJBgNVBAYTAkRFMQ8wDQYDVQQIDAZIZXNzZW4xFDASBgNVBAoMC3By
aXZhY3lpZGVhMQ4wDAYDVQQDDAVDQTAwMYIJAPvI66yDzRIHMBMGA1UdJQQMMAoG
CCsGAQUFBwMBMA0GCSqGSIb3DQEBCwUAA4IBAQB8DdZ2vC58iJYy+NA5aLUXpSVP
T5KsL9ZynTj6FOSr27VQRInTl7GsB0A9aGKQ0LH5KeS9EHlBM+fOdR29ig43fhil
HsJChs/XPLNx43I/1aABmkWT7O+4KWjwqbH07ZthvCVR3YR7w+z/Qu1yvmX3FILs
TZOZTJQg2bIieZ6ImUsDUMRemCtHcZ8ihu11sEnikIYAHW36/kOFIxMZjFviI9RJ
/q6qzc0btS8iPDZG5Fv17U/NIz/15rmsS0PNvEu/qldxoq9y9gG5UyWjPUgvzKqP
ZwqpOGf5GUCYN2cgoXelZPEH4o+i1qQ7Aul6yVTM8cuc+DUmgcNmJcR7ZiLB
-----END CERTIFICATE-----
