Certificate:
    Data:
        Version: 3 (0x2)
        Serial Number: 268435664 (0x100000d0)
    Signature Algorithm: sha256WithRSAEncryption
        Issuer: C=DE, ST=Hessen, O=privacyidea, CN=CA001
        Validity
            Not Before: Sep 21 20:24:58 2018 GMT
            Not After : Sep 21 20:24:58 2019 GMT
        Subject: C=DE, ST=Hessen, O=privacyidea, CN=requester.localdomain
        Subject Public Key Info:
            Public Key Algorithm: rsaEncryption
                Public-Key: (2048 bit)
                Modulus:
                    00:cd:be:14:4f:fa:ce:01:3f:42:22:1b:1d:9c:af:
                    dd:92:d2:7f:db:6c:b7:3e:39:43:43:6b:13:03:f1:
                    05:f4:07:74:bc:76:69:28:0b:af:19:8e:d7:fc:e3:
                    cd:c6:58:f2:ca:7f:08:6d:53:fc:07:02:44:24:c6:
                    b4:34:4c:8c:04:fe:33:0e:40:e2:20:ba:02:73:5a:
                    f7:f5:4f:63:6e:cc:c6:b6:df:54:1d:37:39:7d:51:
                    36:26:5f:bd:dc:3f:a8:8b:6b:a2:ae:b6:9d:d6:21:
                    e7:df:41:b8:7a:28:2a:68:48:ca:a8:2d:ed:e1:e9:
                    46:5e:5a:72:6d:b4:84:38:87:91:fd:94:11:0b:28:
                    84:c6:c2:2f:2a:fb:01:f9:36:7a:09:75:d1:33:88:
                    3c:73:41:5b:c8:bf:94:89:70:a1:f0:c0:b9:2e:50:
                    53:1e:b1:17:64:69:f4:2d:81:e0:a9:0d:0e:32:e9:
                    ba:55:8a:85:f1:1b:6f:49:79:b4:7f:88:c3:0d:3e:
                    54:88:9b:3d:1f:38:8c:04:f3:ee:6a:63:2b:f5:c6:
                    db:b4:83:aa:c4:78:41:3a:7d:4b:e1:c8:3e:71:ca:
                    1b:61:59:ea:c6:c4:ca:32:5e:c9:e9:bf:12:29:e6:
                    c6:c3:63:fe:a0:55:da:7a:f1:60:98:4d:26:ed:fa:
                    70:2d
                Exponent: 65537 (0x10001)
        X509v3 extensions:
            X509v3 Key Usage: 
                Digital Signature, Key Encipherment
            X509v3 Basic Constraints: 
                CA:FALSE
            Netscape Cert Type: 
                SSL Server
            Netscape Comment: 
                OpenSSL Generated Server Certificate
            X509v3 Subject Key Identifier: 
                53:3F:ED:5D:09:07:B3:65:7B:AB:45:C9:24:5B:09:77:80:0A:96:ED
            X509v3 Authority Key Identifier: 
                keyid:F4:A7:C0:CC:91:46:AF:64:F3:91:F2:27:F8:C8:B2:6F:8A:87:32:73
                DirName:/C=DE/ST=Hessen/O=privacyidea/CN=CA001
                serial:FB:C8:EB:AC:83:CD:12:07

            X509v3 Extended Key Usage: 
                TLS Web Server Authentication
    Signature Algorithm: sha256WithRSAEncryption
         5c:74:10:6b:81:23:98:a0:28:7b:d7:74:57:8f:2b:9f:f4:af:
         c3:6e:61:02:a8:b5:ce:38:d4:67:fa:c7:c0:81:b2:e6:a2:66:
         2d:53:bc:82:6c:59:e5:f7:45:41:e0:c7:af:ef:8b:3c:b6:66:
         a2:f5:0f:c8:76:10:39:48:e2:73:60:ec:b2:ce:8c:b6:cf:32:
         3f:2a:a0:04:7e:c1:71:d9:85:34:5d:f8:2c:6a:9a:7e:b0:d2:
         ed:44:1e:6f:aa:d5:05:f1:9e:0f:48:7d:4f:c3:62:af:fb:82:
         d5:0a:03:73:7d:f7:0d:05:7b:e6:a3:4b:c1:6a:f2:45:5a:15:
         1a:5a:93:05:94:9e:05:0f:3a:a9:a8:e3:7f:9b:10:a8:2a:a1:
         a6:90:6f:f0:90:dc:3a:26:6c:ff:14:29:ea:8c:b6:ed:a1:17:
         d9:02:81:30:33:f4:46:0c:a6:63:46:1d:31:90:32:45:dd:2a:
         27:54:3e:c5:76:d2:98:84:82:11:8a:97:aa:75:7d:90:e2:7a:
         ab:06:a0:d3:0c:00:1b:af:0d:f1:eb:64:3a:47:c7:3d:a9:3f:
         13:69:37:25:b7:43:a3:95:70:76:a4:a0:92:30:6f:48:75:73:
         d7:a8:eb:47:8f:06:e2:60:89:9a:69:34:bb:b1:3f:74:53:5d:
         ff:5c:45:cc
-----BEGIN CERTIFICATE-----
MIIEJjCCAw6gAwIBAgIEEAAA0DANBgkqhkiG9w0BAQsFADBEMQswCQYDVQQGEwJE
RTEPMA0GA1UECAwGSGVzc2VuMRQwEgYDVQQKDAtwcml2YWN5aWRlYTEOMAwGA1UE
AwwFQ0EwMDEwHhcNMTgwOTIxMjAyNDU4WhcNMTkwOTIxMjAyNDU4WjBUMQswCQYD
VQQGEwJERTEPMA0GA1UECAwGSGVzc2VuMRQwEgYDVQQKDAtwcml2YWN5aWRlYTEe
MBwGA1UEAwwVcmVxdWVzdGVyLmxvY2FsZG9tYWluMIIBIjANBgkqhkiG9w0BAQEF
AAOCAQ8AMIIBCgKCAQEAzb4UT/rOAT9CIhsdnK/dktJ/22y3PjlDQ2sTA/EF9Ad0
vHZpKAuvGY7X/OPNxljyyn8IbVP8BwJEJMa0NEyMBP4zDkDiILoCc1r39U9jbszG
tt9UHTc5fVE2Jl+93D+oi2uirrad1iHn30G4eigqaEjKqC3t4elGXlpybbSEOIeR
/ZQRCyiExsIvKvsB+TZ6CXXRM4g8c0FbyL+UiXCh8MC5LlBTHrEXZGn0LYHgqQ0O
Mum6VYqF8RtvSXm0f4jDDT5UiJs9HziMBPPuamMr9cbbtIOqxHhBOn1L4cg+ccob
YVnqxsTKMl7J6b8SKebGw2P+oFXaevFgmE0m7fpwLQIDAQABo4IBDjCCAQowCwYD
VR0PBAQDAgWgMAkGA1UdEwQCMAAwEQYJYIZIAYb4QgEBBAQDAgZAMDMGCWCGSAGG
+EIBDQQmFiRPcGVuU1NMIEdlbmVyYXRlZCBTZXJ2ZXIgQ2VydGlmaWNhdGUwHQYD
VR0OBBYEFFM/7V0JB7Nle6tFySRbCXeACpbtMHQGA1UdIwRtMGuAFPSnwMyRRq9k
85HyJ/jIsm+KhzJzoUikRjBEMQswCQYDVQQGEwJERTEPMA0GA1UECAwGSGVzc2Vu
MRQwEgYDVQQKDAtwcml2YWN5aWRlYTEOMAwGA1UEAwwFQ0EwMDGCCQD7yOusg80S
BzATBgNVHSUEDDAKBggrBgEFBQcDATANBgkqhkiG9w0BAQsFAAOCAQEAXHQQa4Ej
mKAoe9d0V48rn/Svw25hAqi1zjjUZ/rHwIGy5qJmLVO8gmxZ5fdFQeDHr++LPLZm
ovUPyHYQOUjic2Dsss6Mts8yPyqgBH7BcdmFNF34LGqafrDS7UQeb6rVBfGeD0h9
T8Nir/uC1QoDc333DQV75qNLwWryRVoVGlqTBZSeBQ86qajjf5sQqCqhppBv8JDc
OiZs/xQp6oy27aEX2QKBMDP0RgymY0YdMZAyRd0qJ1Q+xXbSmISCEYqXqnV9kOJ6
qwag0wwAG68N8etkOkfHPak/E2k3JbdDo5VwdqSgkjBvSHVz16jrR48G4mCJmmk0
u7E/dFNd/1xFzA==
-----END CERTIFICATE-----
