Certificate:
    Data:
        Version: 3 (0x2)
        Serial Number: 268435669 (0x100000d5)
    Signature Algorithm: sha256WithRSAEncryption
        Issuer: C=DE, ST=Hessen, O=privacyidea, CN=CA001
        Validity
            Not Before: Sep 17 19:54:05 2018 GMT
            Not After : Sep 17 19:54:05 2019 GMT
        Subject: C=DE, ST=Hessen, O=privacyidea, CN=requester.localdomain
        Subject Public Key Info:
            Public Key Algorithm: rsaEncryption
                Public-Key: (2048 bit)
                Modulus:
                    00:cd:be:14:4f:fa:ce:01:3f:42:22:1b:1d:9c:af:
                    dd:92:d2:7f:db:6c:b7:3e:39:43:43:6b:13:03:f1:
                    05:f4:07:74:bc:76:69:28:0b:af:19:8e:d7:fc:e3:
                    cd:c6:58:f2:ca:7f:08:6d:53:fc:07:02:44:24:c6:
                    b4:34:4c:8c:04:fe:33:0e:40:e2:20:ba:02:73:5a:
                    f7:f5:4f:63:6e:cc:c6:b6:df:54:1d:37:39:7d:51:
                    36:26:5f:bd:dc:3f:a8:8b:6b:a2:ae:b6:9d:d6:21:
                    e7:df:41:b8:7a:28:2a:68:48:ca:a8:2d:ed:e1:e9:
                    46:5e:5a:72:6d:b4:84:38:87:91:fd:94:11:0b:28:
                    84:c6:c2:2f:2a:fb:01:f9:36:7a:09:75:d1:33:88:
                    3c:73:41:5b:c8:bf:94:89:70:a1:f0:c0:b9:2e:50:
                    53:1e:b1:17:64:69:f4:2d:81:e0:a9:0d:0e:32:e9:
                    ba:55:8a:85:f1:1b:6f:49:79:b4:7f:88:c3:0d:3e:
                    54:88:9b:3d:1f:38:8c:04:f3:ee:6a:63:2b:f5:c6:
                    db:b4:83:aa:c4:78:41:3a:7d:4b:e1:c8:3e:71:ca:
                    1b:61:59:ea:c6:c4:ca:32:5e:c9:e9:bf:12:29:e6:
                    c6:c3:63:fe:a0:55:da:7a:f1:60:98:4d:26:ed:fa:
                    70:2d
                Exponent: 65537 (0x10001)
        X509v3 extensions:
            X509v3 Key Usage: 
                Digital Signature, Key Encipherment
            X509v3 Basic Constraints: 
                CA:FALSE
            Netscape Cert Type: 
                SSL Server
            Netscape Comment: 
                OpenSSL Generated Server Certificate
            X509v3 Subject Key Identifier: 
                53:3F:ED:5D:09:07:B3:65:7B:AB:45:C9:24:5B:09:77:80:0A:96:ED
            X509v3 Authority Key Identifier: 
                keyid:F4:A7:C0:CC:91:46:AF:64:F3:91:F2:27:F8:C8:B2:6F:8A:87:32:73
                DirName:/C=DE/ST=Hessen/O=privacyidea/CN=CA001
                serial:FB:C8:EB:AC:83:CD:12:07

            X509v3 Extended Key Usage: 
                TLS Web Server Authentication
    Signature Algorithm: sha256WithRSAEncryption
         4a:aa:e1:d0:5b:e4:44:8b:fa:38:b7:99:49:45:61:7c:4b:61:
         98:ad:58:8c:39:42:9b:26:b2:e5:ed:47:83:05:04:bd:37:a1:
         41:b9:b0:83:50:7a:be:97:b6:4d:25:7c:7a:44:6b:c8:06:7e:
         e7:86:d1:87:b2:b6:63:4b:03:8f:b2:ea:4c:a7:6a:a5:6f:5f:
         b9:52:a4:aa:cd:5c:31:7e:6a:da:0c:50:48:ba:78:6f:c2:c1:
         bc:c0:ca:6d:99:68:46:fc:56:46:a8:1d:6b:7e:13:a3:be:6d:
         8c:88:6b:67:cf:dd:74:ad:4b:f6:8c:d5:fc:40:a3:0a:33:b0:
         d6:01:c8:42:36:b7:90:70:b9:05:a7:0f:fd:64:98:7f:23:43:
         b0:c2:c9:63:58:1b:8d:82:0d:11:c2:41:51:40:be:42:51:e5:
         87:b5:bb:39:40:f9:c7:43:50:3a:3b:ab:b4:fa:33:00:05:28:
         e0:a6:3a:20:3f:08:a8:ac:c7:9e:45:bd:0b:55:67:c2:e4:6c:
         2d:aa:d4:18:19:06:4f:b8:86:5e:5b:4a:74:b7:d0:e7:38:0a:
         eb:4d:5b:84:4a:c5:13:97:74:9c:19:4b:6b:70:72:50:4d:8d:
         b6:22:69:68:86:cd:00:63:c4:4e:6d:f6:fb:0f:9e:e5:a9:d5:
         57:1c:68:a9
-----BEGIN CERTIFICATE-----
MIIEJjCCAw6gAwIBAgIEEAAA1TANBgkqhkiG9w0BAQsFADBEMQswCQYDVQQGEwJE
RTEPMA0GA1UECAwGSGVzc2VuMRQwEgYDVQQKDAtwcml2YWN5aWRlYTEOMAwGA1UE
AwwFQ0EwMDEwHhcNMTgwOTE3MTk1NDA1WhcNMTkwOTE3MTk1NDA1WjBUMQswCQYD
VQQGEwJERTEPMA0GA1UECAwGSGVzc2VuMRQwEgYDVQQKDAtwcml2YWN5aWRlYTEe
MBwGA1UEAwwVcmVxdWVzdGVyLmxvY2FsZG9tYWluMIIBIjANBgkqhkiG9w0BAQEF
AAOCAQ8AMIIBCgKCAQEAzb4UT/rOAT9CIhsdnK/dktJ/22y3PjlDQ2sTA/EF9Ad0
vHZpKAuvGY7X/OPNxljyyn8IbVP8BwJEJMa0NEyMBP4zDkDiILoCc1r39U9jbszG
tt9UHTc5fVE2Jl+93D+oi2uirrad1iHn30G4eigqaEjKqC3t4elGXlpybbSEOIeR
/ZQRCyiExsIvKvsB+TZ6CXXRM4g8c0FbyL+UiXCh8MC5LlBTHrEXZGn0LYHgqQ0O
Mum6VYqF8RtvSXm0f4jDDT5UiJs9HziMBPPuamMr9cbbtIOqxHhBOn1L4cg+ccob
YVnqxsTKMl7J6b8SKebGw2P+oFXaevFgmE0m7fpwLQIDAQABo4IBDjCCAQowCwYD
VR0PBAQDAgWgMAkGA1UdEwQCMAAwEQYJYIZIAYb4QgEBBAQDAgZAMDMGCWCGSAGG
+EIBDQQmFiRPcGVuU1NMIEdlbmVyYXRlZCBTZXJ2ZXIgQ2VydGlmaWNhdGUwHQYD
VR0OBBYEFFM/7V0JB7Nle6tFySRbCXeACpbtMHQGA1UdIwRtMGuAFPSnwMyRRq9k
85HyJ/jIsm+KhzJzoUikRjBEMQswCQYDVQQGEwJERTEPMA0GA1UECAwGSGVzc2Vu
MRQwEgYDVQQKDAtwcml2YWN5aWRlYTEOMAwGA1UEAwwFQ0EwMDGCCQD7yOusg80S
BzATBgNVHSUEDDAKBggrBgEFBQcDATANBgkqhkiG9w0BAQsFAAOCAQEASqrh0Fvk
RIv6OLeZSUVhfEthmK1YjDlCmyay5e1HgwUEvTehQbmwg1B6vpe2TSV8ekRryAZ+
54bRh7K2Y0sDj7LqTKdqpW9fuVKkqs1cMX5q2gxQSLp4b8LBvMDKbZloRvxWRqgd
a34To75tjIhrZ8/ddK1L9ozV/ECjCjOw1gHIQja3kHC5BacP/WSYfyNDsMLJY1gb
jYINEcJBUUC+QlHlh7W7OUD5x0NQOjurtPozAAUo4KY6ID8IqKzHnkW9C1VnwuRs
LarUGBkGT7iGXltKdLfQ5zgK601bhErFE5d0nBlLa3ByUE2NtiJpaIbNAGPETm32
+w+e5anVVxxoqQ==
-----END CERTIFICATE-----
