Certificate:
    Data:
        Version: 3 (0x2)
        Serial Number: 268435665 (0x100000d1)
    Signature Algorithm: sha256WithRSAEncryption
        Issuer: C=DE, ST=Hessen, O=privacyidea, CN=CA001
        Validity
            Not Before: Sep 17 19:49:13 2018 GMT
            Not After : Sep 17 19:49:13 2019 GMT
        Subject: C=DE, ST=Hessen, O=privacyidea, CN=requester.localdomain
        Subject Public Key Info:
            Public Key Algorithm: rsaEncryption
                Public-Key: (2048 bit)
                Modulus:
                    00:cd:be:14:4f:fa:ce:01:3f:42:22:1b:1d:9c:af:
                    dd:92:d2:7f:db:6c:b7:3e:39:43:43:6b:13:03:f1:
                    05:f4:07:74:bc:76:69:28:0b:af:19:8e:d7:fc:e3:
                    cd:c6:58:f2:ca:7f:08:6d:53:fc:07:02:44:24:c6:
                    b4:34:4c:8c:04:fe:33:0e:40:e2:20:ba:02:73:5a:
                    f7:f5:4f:63:6e:cc:c6:b6:df:54:1d:37:39:7d:51:
                    36:26:5f:bd:dc:3f:a8:8b:6b:a2:ae:b6:9d:d6:21:
                    e7:df:41:b8:7a:28:2a:68:48:ca:a8:2d:ed:e1:e9:
                    46:5e:5a:72:6d:b4:84:38:87:91:fd:94:11:0b:28:
                    84:c6:c2:2f:2a:fb:01:f9:36:7a:09:75:d1:33:88:
                    3c:73:41:5b:c8:bf:94:89:70:a1:f0:c0:b9:2e:50:
                    53:1e:b1:17:64:69:f4:2d:81:e0:a9:0d:0e:32:e9:
                    ba:55:8a:85:f1:1b:6f:49:79:b4:7f:88:c3:0d:3e:
                    54:88:9b:3d:1f:38:8c:04:f3:ee:6a:63:2b:f5:c6:
                    db:b4:83:aa:c4:78:41:3a:7d:4b:e1:c8:3e:71:ca:
                    1b:61:59:ea:c6:c4:ca:32:5e:c9:e9:bf:12:29:e6:
                    c6:c3:63:fe:a0:55:da:7a:f1:60:98:4d:26:ed:fa:
                    70:2d
                Exponent: 65537 (0x10001)
        X509v3 extensions:
            X509v3 Key Usage: 
                Digital Signature, Key Encipherment
            X509v3 Basic Constraints: 
                CA:FALSE
            Netscape Cert Type: 
                SSL Server
            Netscape Comment: 
                OpenSSL Generated Server Certificate
            X509v3 Subject Key Identifier: 
                53:3F:ED:5D:09:07:B3:65:7B:AB:45:C9:24:5B:09:77:80:0A:96:ED
            X509v3 Authority Key Identifier: 
                keyid:F4:A7:C0:CC:91:46:AF:64:F3:91:F2:27:F8:C8:B2:6F:8A:87:32:73
                DirName:/C=DE/ST=Hessen/O=privacyidea/CN=CA001
                serial:FB:C8:EB:AC:83:CD:12:07

            X509v3 Extended Key Usage: 
                TLS Web Server Authentication
    Signature Algorithm: sha256WithRSAEncryption
         16:e6:78:01:34:9c:85:91:33:06:01:b0:39:5a:7b:84:8e:b1:
         4f:3d:3b:56:cd:bc:cf:48:2f:ba:2e:f0:5e:ed:90:5f:ea:88:
         63:57:cd:5c:9d:49:5c:c9:43:87:e1:ad:95:d2:3b:6e:3f:d5:
         f4:8d:3d:a0:52:fc:6b:6f:d1:91:56:6e:0e:ee:9c:5f:6b:67:
         5f:c8:b9:92:b3:36:7b:5a:0c:69:b1:ef:e4:27:81:ba:7b:c8:
         c1:98:59:e0:cc:39:1d:99:eb:5f:a9:91:07:e2:91:1a:6c:8d:
         22:bd:82:47:1a:6f:ba:41:1f:09:1d:06:fe:23:d3:1d:c8:02:
         52:27:70:70:bb:c4:ea:c9:d2:00:57:0a:cd:9a:1e:1e:e6:09:
         dc:db:2b:3c:58:26:92:d8:b8:2b:63:4c:74:c0:b1:d6:36:a5:
         55:63:53:5f:19:53:24:55:db:90:87:77:80:6f:73:97:48:61:
         b1:07:98:6a:42:7c:26:34:b4:dc:17:cf:7b:46:ff:90:dc:70:
         d9:72:c9:94:1f:90:8b:d7:20:86:b7:79:03:c6:b9:e0:1e:75:
         59:71:ab:f0:4f:e5:6b:90:47:fa:42:fa:7a:41:db:f7:42:35:
         79:fd:6b:40:52:0f:0b:a4:c2:64:4b:cf:08:54:48:24:c2:f6:
         ea:4a:2a:70
-----BEGIN CERTIFICATE-----
MIIEJjCCAw6gAwIBAgIEEAAA0TANBgkqhkiG9w0BAQsFADBEMQswCQYDVQQGEwJE
RTEPMA0GA1UECAwGSGVzc2VuMRQwEgYDVQQKDAtwcml2YWN5aWRlYTEOMAwGA1UE
AwwFQ0EwMDEwHhcNMTgwOTE3MTk0OTEzWhcNMTkwOTE3MTk0OTEzWjBUMQswCQYD
VQQGEwJERTEPMA0GA1UECAwGSGVzc2VuMRQwEgYDVQQKDAtwcml2YWN5aWRlYTEe
MBwGA1UEAwwVcmVxdWVzdGVyLmxvY2FsZG9tYWluMIIBIjANBgkqhkiG9w0BAQEF
AAOCAQ8AMIIBCgKCAQEAzb4UT/rOAT9CIhsdnK/dktJ/22y3PjlDQ2sTA/EF9Ad0
vHZpKAuvGY7X/OPNxljyyn8IbVP8BwJEJMa0NEyMBP4zDkDiILoCc1r39U9jbszG
tt9UHTc5fVE2Jl+93D+oi2uirrad1iHn30G4eigqaEjKqC3t4elGXlpybbSEOIeR
/ZQRCyiExsIvKvsB+TZ6CXXRM4g8c0FbyL+UiXCh8MC5LlBTHrEXZGn0LYHgqQ0O
Mum6VYqF8RtvSXm0f4jDDT5UiJs9HziMBPPuamMr9cbbtIOqxHhBOn1L4cg+ccob
YVnqxsTKMl7J6b8SKebGw2P+oFXaevFgmE0m7fpwLQIDAQABo4IBDjCCAQowCwYD
VR0PBAQDAgWgMAkGA1UdEwQCMAAwEQYJYIZIAYb4QgEBBAQDAgZAMDMGCWCGSAGG
+EIBDQQmFiRPcGVuU1NMIEdlbmVyYXRlZCBTZXJ2ZXIgQ2VydGlmaWNhdGUwHQYD
VR0OBBYEFFM/7V0JB7Nle6tFySRbCXeACpbtMHQGA1UdIwRtMGuAFPSnwMyRRq9k
85HyJ/jIsm+KhzJzoUikRjBEMQswCQYDVQQGEwJERTEPMA0GA1UECAwGSGVzc2Vu
MRQwEgYDVQQKDAtwcml2YWN5aWRlYTEOMAwGA1UEAwwFQ0EwMDGCCQD7yOusg80S
BzATBgNVHSUEDDAKBggrBgEFBQcDATANBgkqhkiG9w0BAQsFAAOCAQEAFuZ4ATSc
hZEzBgGwOVp7hI6xTz07Vs28z0gvui7wXu2QX+qIY1fNXJ1JXMlDh+GtldI7bj/V
9I09oFL8a2/RkVZuDu6cX2tnX8i5krM2e1oMabHv5CeBunvIwZhZ4Mw5HZnrX6mR
B+KRGmyNIr2CRxpvukEfCR0G/iPTHcgCUidwcLvE6snSAFcKzZoeHuYJ3NsrPFgm
kti4K2NMdMCx1jalVWNTXxlTJFXbkId3gG9zl0hhsQeYakJ8JjS03BfPe0b/kNxw
2XLJlB+Qi9cghrd5A8a54B51WXGr8E/la5BH+kL6ekHb90I1ef1rQFIPC6TCZEvP
CFRIJML26koqcA==
-----END CERTIFICATE-----
