Certificate:
    Data:
        Version: 3 (0x2)
        Serial Number: 268435667 (0x100000d3)
    Signature Algorithm: sha256WithRSAEncryption
        Issuer: C=DE, ST=Hessen, O=privacyidea, CN=CA001
        Validity
            Not Before: Sep 17 19:49:14 2018 GMT
            Not After : Sep 17 19:49:14 2019 GMT
        Subject: CN=Steve Test/emailAddress=steve@openssl.org
        Subject Public Key Info:
            Public Key Algorithm: rsaEncryption
                Public-Key: (2048 bit)
                Modulus:
                    00:d2:81:89:20:51:48:0f:73:f4:11:32:24:d5:1f:
                    1c:fd:5c:f5:b6:e6:c5:f0:52:81:dc:d2:af:66:4a:
                    7c:93:31:61:5c:af:d1:6d:06:70:03:60:7c:72:0c:
                    88:dd:49:cd:9e:02:6c:d2:5a:d7:53:0f:f3:da:be:
                    69:64:b5:0f:0c:00:e3:b3:50:47:a3:b3:9b:ba:13:
                    50:d6:58:5a:4b:ab:39:e0:11:ca:0a:27:67:03:78:
                    22:66:6d:92:1e:1b:5c:49:ae:e6:6b:d1:8e:3b:9d:
                    06:d3:c6:ac:4d:53:43:10:ab:e8:96:c1:87:82:97:
                    99:8f:20:d3:99:12:37:31:84:e1:8a:ff:29:03:5f:
                    22:90:3e:7f:9b:e0:20:c1:ad:dc:ae:4c:39:1a:31:
                    96:17:02:8c:b2:d9:b4:0d:20:12:9b:7d:86:54:fd:
                    33:fd:c1:2a:62:46:f8:60:96:cf:6e:01:6f:22:df:
                    13:47:e7:97:ec:05:72:23:a3:62:f8:fa:ef:ac:9c:
                    72:f0:37:cb:2f:37:cf:90:a8:27:51:86:c6:d7:78:
                    08:8f:7e:25:a2:15:70:a2:fb:1c:b6:15:5e:a0:97:
                    8b:81:4c:09:28:8a:27:3b:94:bc:71:db:5b:71:37:
                    9a:2b:16:e0:6f:b5:c9:f5:4b:4f:20:ba:65:cf:af:
                    ad:ad
                Exponent: 65537 (0x10001)
        X509v3 extensions:
            X509v3 Key Usage: 
                Digital Signature, Key Encipherment
            X509v3 Basic Constraints: 
                CA:FALSE
            Netscape Cert Type: 
                SSL Server
            Netscape Comment: 
                OpenSSL Generated Server Certificate
            X509v3 Subject Key Identifier: 
                E5:25:6D:3E:AF:0D:DD:3F:4C:F2:45:19:39:D5:14:DB:7E:9C:C0:AD
            X509v3 Authority Key Identifier: 
                keyid:F4:A7:C0:CC:91:46:AF:64:F3:91:F2:27:F8:C8:B2:6F:8A:87:32:73
                DirName:/C=DE/ST=Hessen/O=privacyidea/CN=CA001
                serial:FB:C8:EB:AC:83:CD:12:07

            X509v3 Extended Key Usage: 
                TLS Web Server Authentication
    Signature Algorithm: sha256WithRSAEncryption
         06:fe:90:55:78:fa:6d:b6:3c:3b:87:70:9b:75:52:c5:b0:0d:
         16:ec:31:bf:b6:f2:a8:9a:3b:47:8e:80:a2:5e:46:f6:d8:01:
         f1:be:a7:99:15:8d:e0:6f:95:be:45:21:39:4a:d9:45:51:54:
         1b:ad:34:56:b2:20:47:3c:c6:60:c9:6d:3e:bf:57:9c:ee:27:
         c1:48:24:04:79:cb:b5:5f:1e:51:3c:1d:f1:0a:44:53:9e:0a:
         b6:2e:2e:41:03:21:a1:c2:52:8d:a2:f5:e3:07:ce:45:af:c5:
         3a:d1:c6:c1:5c:b5:f1:7c:83:d4:14:e2:6c:a9:77:93:65:a5:
         c9:d1:e9:53:ee:84:49:4c:a2:d6:b1:dd:db:5c:6d:1b:ad:ee:
         d5:09:5e:67:0c:dc:68:16:06:c6:bc:a5:50:ed:b9:7d:c2:de:
         6e:89:ad:c1:dd:0d:cf:90:88:cf:1c:fd:35:a1:72:9a:dd:d9:
         14:ec:c4:d0:9c:1c:ed:02:64:93:d6:0c:fc:a6:99:c8:cf:5c:
         c8:ae:e5:55:2e:f7:80:e4:7d:d6:65:12:1a:21:9f:47:16:46:
         53:02:c2:e6:72:81:db:f2:36:9a:1b:9c:11:bb:de:d7:e3:ff:
         a1:d9:92:20:82:d5:8d:a1:0a:ff:92:5a:80:97:69:77:36:13:
         42:ad:05:a1
-----BEGIN CERTIFICATE-----
MIIECTCCAvGgAwIBAgIEEAAA0zANBgkqhkiG9w0BAQsFADBEMQswCQYDVQQGEwJE
RTEPMA0GA1UECAwGSGVzc2VuMRQwEgYDVQQKDAtwcml2YWN5aWRlYTEOMAwGA1UE
AwwFQ0EwMDEwHhcNMTgwOTE3MTk0OTE0WhcNMTkwOTE3MTk0OTE0WjA3MRMwEQYD
VQQDDApTdGV2ZSBUZXN0MSAwHgYJKoZIhvcNAQkBFhFzdGV2ZUBvcGVuc3NsLm9y
ZzCCASIwDQYJKoZIhvcNAQEBBQADggEPADCCAQoCggEBANKBiSBRSA9z9BEyJNUf
HP1c9bbmxfBSgdzSr2ZKfJMxYVyv0W0GcANgfHIMiN1JzZ4CbNJa11MP89q+aWS1
DwwA47NQR6Ozm7oTUNZYWkurOeARygonZwN4ImZtkh4bXEmu5mvRjjudBtPGrE1T
QxCr6JbBh4KXmY8g05kSNzGE4Yr/KQNfIpA+f5vgIMGt3K5MORoxlhcCjLLZtA0g
Ept9hlT9M/3BKmJG+GCWz24BbyLfE0fnl+wFciOjYvj676yccvA3yy83z5CoJ1GG
xtd4CI9+JaIVcKL7HLYVXqCXi4FMCSiKJzuUvHHbW3E3misW4G+1yfVLTyC6Zc+v
ra0CAwEAAaOCAQ4wggEKMAsGA1UdDwQEAwIFoDAJBgNVHRMEAjAAMBEGCWCGSAGG
+EIBAQQEAwIGQDAzBglghkgBhvhCAQ0EJhYkT3BlblNTTCBHZW5lcmF0ZWQgU2Vy
dmVyIENlcnRpZmljYXRlMB0GA1UdDgQWBBTlJW0+rw3dP0zyRRk51RTbfpzArTB0
BgNVHSMEbTBrgBT0p8DMkUavZPOR8if4yLJviocyc6FIpEYwRDELMAkGA1UEBhMC
REUxDzANBgNVBAgMBkhlc3NlbjEUMBIGA1UECgwLcHJpdmFjeWlkZWExDjAMBgNV
BAMMBUNBMDAxggkA+8jrrIPNEgcwEwYDVR0lBAwwCgYIKwYBBQUHAwEwDQYJKoZI
hvcNAQELBQADggEBAAb+kFV4+m22PDuHcJt1UsWwDRbsMb+28qiaO0eOgKJeRvbY
AfG+p5kVjeBvlb5FITlK2UVRVButNFayIEc8xmDJbT6/V5zuJ8FIJAR5y7VfHlE8
HfEKRFOeCrYuLkEDIaHCUo2i9eMHzkWvxTrRxsFctfF8g9QU4mypd5NlpcnR6VPu
hElMotax3dtcbRut7tUJXmcM3GgWBsa8pVDtuX3C3m6JrcHdDc+QiM8c/TWhcprd
2RTsxNCcHO0CZJPWDPymmcjPXMiu5VUu94DkfdZlEhohn0cWRlMCwuZygdvyNpob
nBG73tfj/6HZkiCC1Y2hCv+SWoCXaXc2E0KtBaE=
-----END CERTIFICATE-----
