Certificate:
    Data:
        Version: 3 (0x2)
        Serial Number: 268435664 (0x100000d0)
    Signature Algorithm: sha256WithRSAEncryption
        Issuer: C=DE, ST=Hessen, O=privacyidea, CN=CA001
        Validity
            Not Before: Sep 17 19:46:36 2018 GMT
            Not After : Sep 17 19:46:36 2019 GMT
        Subject: C=DE, ST=Hessen, O=privacyidea, CN=requester.localdomain
        Subject Public Key Info:
            Public Key Algorithm: rsaEncryption
                Public-Key: (2048 bit)
                Modulus:
                    00:cd:be:14:4f:fa:ce:01:3f:42:22:1b:1d:9c:af:
                    dd:92:d2:7f:db:6c:b7:3e:39:43:43:6b:13:03:f1:
                    05:f4:07:74:bc:76:69:28:0b:af:19:8e:d7:fc:e3:
                    cd:c6:58:f2:ca:7f:08:6d:53:fc:07:02:44:24:c6:
                    b4:34:4c:8c:04:fe:33:0e:40:e2:20:ba:02:73:5a:
                    f7:f5:4f:63:6e:cc:c6:b6:df:54:1d:37:39:7d:51:
                    36:26:5f:bd:dc:3f:a8:8b:6b:a2:ae:b6:9d:d6:21:
                    e7:df:41:b8:7a:28:2a:68:48:ca:a8:2d:ed:e1:e9:
                    46:5e:5a:72:6d:b4:84:38:87:91:fd:94:11:0b:28:
                    84:c6:c2:2f:2a:fb:01:f9:36:7a:09:75:d1:33:88:
                    3c:73:41:5b:c8:bf:94:89:70:a1:f0:c0:b9:2e:50:
                    53:1e:b1:17:64:69:f4:2d:81:e0:a9:0d:0e:32:e9:
                    ba:55:8a:85:f1:1b:6f:49:79:b4:7f:88:c3:0d:3e:
                    54:88:9b:3d:1f:38:8c:04:f3:ee:6a:63:2b:f5:c6:
                    db:b4:83:aa:c4:78:41:3a:7d:4b:e1:c8:3e:71:ca:
                    1b:61:59:ea:c6:c4:ca:32:5e:c9:e9:bf:12:29:e6:
                    c6:c3:63:fe:a0:55:da:7a:f1:60:98:4d:26:ed:fa:
                    70:2d
                Exponent: 65537 (0x10001)
        X509v3 extensions:
            X509v3 Key Usage: 
                Digital Signature, Key Encipherment
            X509v3 Basic Constraints: 
                CA:FALSE
            Netscape Cert Type: 
                SSL Server
            Netscape Comment: 
                OpenSSL Generated Server Certificate
            X509v3 Subject Key Identifier: 
                53:3F:ED:5D:09:07:B3:65:7B:AB:45:C9:24:5B:09:77:80:0A:96:ED
            X509v3 Authority Key Identifier: 
                keyid:F4:A7:C0:CC:91:46:AF:64:F3:91:F2:27:F8:C8:B2:6F:8A:87:32:73
                DirName:/C=DE/ST=Hessen/O=privacyidea/CN=CA001
                serial:FB:C8:EB:AC:83:CD:12:07

            X509v3 Extended Key Usage: 
                TLS Web Server Authentication
    Signature Algorithm: sha256WithRSAEncryption
         4f:99:66:e6:59:22:a7:48:a9:fc:c3:d7:ca:8c:ae:45:22:06:
         5a:11:9f:e8:73:e1:2c:83:d2:cf:54:0e:14:5e:a9:e1:fa:9a:
         da:b6:fe:89:6f:98:76:fb:1a:16:4a:f5:49:1e:e3:b3:32:70:
         87:35:42:0f:86:97:41:c3:d8:bc:58:9d:ad:09:1c:a5:f6:e5:
         bb:59:29:56:66:6a:f7:ec:bf:c7:8c:d5:fd:ed:ef:82:cb:30:
         80:bd:ce:06:a3:21:d2:4a:14:d0:a5:e5:1c:6c:5d:d7:72:03:
         04:ce:75:dc:20:97:24:34:2e:c2:fa:b7:07:5d:ae:90:90:68:
         5b:4f:f1:cc:47:75:8d:01:bd:ba:cd:d0:6a:7e:7a:7d:b8:24:
         f4:65:67:4e:5f:5b:07:dd:df:69:44:f4:28:9c:a7:90:38:3c:
         74:41:f6:9e:e8:36:77:92:ea:93:51:6d:40:48:17:56:05:14:
         9d:72:e3:67:03:25:4d:04:e2:02:64:e9:6a:6d:1f:6c:25:30:
         98:b8:8d:a8:32:d6:95:1f:f5:2f:25:c1:2c:1c:bb:d8:e2:3e:
         bf:35:85:fa:f2:17:6e:66:5c:40:38:24:33:89:06:a9:7b:6c:
         07:5b:f6:e7:9b:e7:b6:9e:a8:4a:fc:f8:fc:d2:e5:06:2e:b7:
         91:89:83:8a
-----BEGIN CERTIFICATE-----
MIIEJjCCAw6gAwIBAgIEEAAA0DANBgkqhkiG9w0BAQsFADBEMQswCQYDVQQGEwJE
RTEPMA0GA1UECAwGSGVzc2VuMRQwEgYDVQQKDAtwcml2YWN5aWRlYTEOMAwGA1UE
AwwFQ0EwMDEwHhcNMTgwOTE3MTk0NjM2WhcNMTkwOTE3MTk0NjM2WjBUMQswCQYD
VQQGEwJERTEPMA0GA1UECAwGSGVzc2VuMRQwEgYDVQQKDAtwcml2YWN5aWRlYTEe
MBwGA1UEAwwVcmVxdWVzdGVyLmxvY2FsZG9tYWluMIIBIjANBgkqhkiG9w0BAQEF
AAOCAQ8AMIIBCgKCAQEAzb4UT/rOAT9CIhsdnK/dktJ/22y3PjlDQ2sTA/EF9Ad0
vHZpKAuvGY7X/OPNxljyyn8IbVP8BwJEJMa0NEyMBP4zDkDiILoCc1r39U9jbszG
tt9UHTc5fVE2Jl+93D+oi2uirrad1iHn30G4eigqaEjKqC3t4elGXlpybbSEOIeR
/ZQRCyiExsIvKvsB+TZ6CXXRM4g8c0FbyL+UiXCh8MC5LlBTHrEXZGn0LYHgqQ0O
Mum6VYqF8RtvSXm0f4jDDT5UiJs9HziMBPPuamMr9cbbtIOqxHhBOn1L4cg+ccob
YVnqxsTKMl7J6b8SKebGw2P+oFXaevFgmE0m7fpwLQIDAQABo4IBDjCCAQowCwYD
VR0PBAQDAgWgMAkGA1UdEwQCMAAwEQYJYIZIAYb4QgEBBAQDAgZAMDMGCWCGSAGG
+EIBDQQmFiRPcGVuU1NMIEdlbmVyYXRlZCBTZXJ2ZXIgQ2VydGlmaWNhdGUwHQYD
VR0OBBYEFFM/7V0JB7Nle6tFySRbCXeACpbtMHQGA1UdIwRtMGuAFPSnwMyRRq9k
85HyJ/jIsm+KhzJzoUikRjBEMQswCQYDVQQGEwJERTEPMA0GA1UECAwGSGVzc2Vu
MRQwEgYDVQQKDAtwcml2YWN5aWRlYTEOMAwGA1UEAwwFQ0EwMDGCCQD7yOusg80S
BzATBgNVHSUEDDAKBggrBgEFBQcDATANBgkqhkiG9w0BAQsFAAOCAQEAT5lm5lki
p0ip/MPXyoyuRSIGWhGf6HPhLIPSz1QOFF6p4fqa2rb+iW+YdvsaFkr1SR7jszJw
hzVCD4aXQcPYvFidrQkcpfblu1kpVmZq9+y/x4zV/e3vgsswgL3OBqMh0koU0KXl
HGxd13IDBM513CCXJDQuwvq3B12ukJBoW0/xzEd1jQG9us3Qan56fbgk9GVnTl9b
B93faUT0KJynkDg8dEH2nug2d5Lqk1FtQEgXVgUUnXLjZwMlTQTiAmTpam0fbCUw
mLiNqDLWlR/1LyXBLBy72OI+vzWF+vIXbmZcQDgkM4kGqXtsB1v255vntp6oSvz4
/NLlBi63kYmDig==
-----END CERTIFICATE-----
