Certificate:
    Data:
        Version: 3 (0x2)
        Serial Number: 268435670 (0x100000d6)
    Signature Algorithm: sha256WithRSAEncryption
        Issuer: C=DE, ST=Hessen, O=privacyidea, CN=CA001
        Validity
            Not Before: Sep 17 19:54:06 2018 GMT
            Not After : Sep 17 19:54:06 2019 GMT
        Subject: OU=realm1, CN=cornelius/emailAddress=user@localhost.localdomain
        Subject Public Key Info:
            Public Key Algorithm: rsaEncryption
                Public-Key: (2048 bit)
                Modulus:
                    00:e2:f7:87:32:01:5b:c3:37:54:7c:7e:21:4c:84:
                    4c:20:f0:90:35:b1:63:05:92:9e:89:74:33:28:3d:
                    f5:ec:e7:3b:f2:3c:72:28:23:79:6e:ce:98:c8:f2:
                    0d:88:26:21:7d:b6:42:7b:95:09:b2:d9:b2:15:3d:
                    0a:fd:ac:22:08:91:63:79:b8:15:b5:ed:ce:95:f7:
                    84:17:68:31:93:ad:3d:53:26:cb:5a:71:4b:6d:31:
                    22:9c:b3:8f:dd:85:9e:71:6f:e0:3e:5d:fb:53:99:
                    fb:21:63:a2:57:8a:e6:5a:d3:9f:49:c5:d7:f1:55:
                    38:8e:67:8f:8d:32:e2:8e:1e:82:f8:11:1d:23:d9:
                    c9:bb:64:2c:fd:6b:25:bd:c7:4b:52:67:cf:68:96:
                    67:eb:e0:aa:8a:7e:4b:ea:a2:92:e2:0f:a6:37:58:
                    7a:46:ec:71:78:82:7d:7b:03:b0:88:15:c4:e4:1b:
                    dc:8a:88:9b:a3:41:27:f6:c4:cc:c4:c8:03:cd:d0:
                    90:73:14:23:11:fe:a3:38:81:99:22:c3:24:4c:ac:
                    89:a6:2f:d5:90:0a:c5:0a:7b:c0:ec:a5:22:63:be:
                    a9:1f:b1:a4:51:0b:6d:94:d5:e5:0b:04:43:f9:63:
                    5f:c1:43:11:f3:e3:19:60:71:94:33:de:60:66:a5:
                    15:8b
                Exponent: 65537 (0x10001)
        X509v3 extensions:
            X509v3 Key Usage: 
                Digital Signature, Key Encipherment
            X509v3 Basic Constraints: 
                CA:FALSE
            Netscape Cert Type: 
                SSL Server
            Netscape Comment: 
                OpenSSL Generated Server Certificate
            X509v3 Subject Key Identifier: 
                DA:08:45:12:D3:19:36:8B:F9:C6:B0:14:57:1A:85:2C:B7:95:6C:AE
            X509v3 Authority Key Identifier: 
                keyid:F4:A7:C0:CC:91:46:AF:64:F3:91:F2:27:F8:C8:B2:6F:8A:87:32:73
                DirName:/C=DE/ST=Hessen/O=privacyidea/CN=CA001
                serial:FB:C8:EB:AC:83:CD:12:07

            X509v3 Extended Key Usage: 
                TLS Web Server Authentication
    Signature Algorithm: sha256WithRSAEncryption
         1c:1c:89:41:2c:a1:81:8f:df:10:67:95:ba:87:81:11:5a:bb:
         fe:3f:96:70:dd:5a:18:31:36:cb:d5:e7:8f:ad:c6:c6:fc:86:
         72:39:1f:c6:44:cb:43:03:4a:1c:1f:c0:5b:e1:e8:d2:d1:58:
         6a:64:aa:68:d2:b6:33:55:5f:8e:c5:27:56:b2:1e:43:2b:1d:
         ca:3b:ab:1c:6a:f8:0f:7e:21:ff:2d:e7:0f:a9:18:60:e2:d1:
         8e:98:90:91:2b:ef:61:50:cd:2a:3a:90:ec:d0:61:74:21:19:
         2f:71:94:08:98:4b:37:d0:08:b2:71:a1:2c:ef:14:51:00:8d:
         22:15:f4:c1:24:85:17:83:2e:a5:47:41:51:73:a4:4d:6c:d3:
         49:0f:30:d1:be:06:c8:26:05:77:16:d2:59:cc:65:51:47:c0:
         c7:98:3e:81:a4:b5:91:e9:2b:e5:36:c9:27:ee:29:ef:75:ec:
         2f:2d:cd:e7:53:e8:90:33:e7:0d:88:58:7a:9d:1a:72:1f:28:
         d7:e6:af:81:41:b3:b3:5c:ac:04:66:e1:de:09:ae:a2:48:dc:
         67:d2:a9:26:dd:70:ab:24:07:13:73:aa:7f:fd:b7:a3:54:c3:
         36:99:e9:30:13:c3:c8:75:d7:1a:22:20:ea:17:72:c5:b1:8e:
         44:d2:93:4a
-----BEGIN CERTIFICATE-----
MIIEIjCCAwqgAwIBAgIEEAAA1jANBgkqhkiG9w0BAQsFADBEMQswCQYDVQQGEwJE
RTEPMA0GA1UECAwGSGVzc2VuMRQwEgYDVQQKDAtwcml2YWN5aWRlYTEOMAwGA1UE
AwwFQ0EwMDEwHhcNMTgwOTE3MTk1NDA2WhcNMTkwOTE3MTk1NDA2WjBQMQ8wDQYD
VQQLDAZyZWFsbTExEjAQBgNVBAMMCWNvcm5lbGl1czEpMCcGCSqGSIb3DQEJARYa
dXNlckBsb2NhbGhvc3QubG9jYWxkb21haW4wggEiMA0GCSqGSIb3DQEBAQUAA4IB
DwAwggEKAoIBAQDi94cyAVvDN1R8fiFMhEwg8JA1sWMFkp6JdDMoPfXs5zvyPHIo
I3luzpjI8g2IJiF9tkJ7lQmy2bIVPQr9rCIIkWN5uBW17c6V94QXaDGTrT1TJsta
cUttMSKcs4/dhZ5xb+A+XftTmfshY6JXiuZa059JxdfxVTiOZ4+NMuKOHoL4ER0j
2cm7ZCz9ayW9x0tSZ89olmfr4KqKfkvqopLiD6Y3WHpG7HF4gn17A7CIFcTkG9yK
iJujQSf2xMzEyAPN0JBzFCMR/qM4gZkiwyRMrImmL9WQCsUKe8DspSJjvqkfsaRR
C22U1eULBEP5Y1/BQxHz4xlgcZQz3mBmpRWLAgMBAAGjggEOMIIBCjALBgNVHQ8E
BAMCBaAwCQYDVR0TBAIwADARBglghkgBhvhCAQEEBAMCBkAwMwYJYIZIAYb4QgEN
BCYWJE9wZW5TU0wgR2VuZXJhdGVkIFNlcnZlciBDZXJ0aWZpY2F0ZTAdBgNVHQ4E
FgQU2ghFEtMZNov5xrAUVxqFLLeVbK4wdAYDVR0jBG0wa4AU9KfAzJFGr2TzkfIn
+Miyb4qHMnOhSKRGMEQxCzAJBgNVBAYTAkRFMQ8wDQYDVQQIDAZIZXNzZW4xFDAS
BgNVBAoMC3ByaXZhY3lpZGVhMQ4wDAYDVQQDDAVDQTAwMYIJAPvI66yDzRIHMBMG
A1UdJQQMMAoGCCsGAQUFBwMBMA0GCSqGSIb3DQEBCwUAA4IBAQAcHIlBLKGBj98Q
Z5W6h4ERWrv+P5Zw3VoYMTbL1eePrcbG/IZyOR/GRMtDA0ocH8Bb4ejS0VhqZKpo
0rYzVV+OxSdWsh5DKx3KO6scavgPfiH/LecPqRhg4tGOmJCRK+9hUM0qOpDs0GF0
IRkvcZQImEs30AiycaEs7xRRAI0iFfTBJIUXgy6lR0FRc6RNbNNJDzDRvgbIJgV3
FtJZzGVRR8DHmD6BpLWR6SvlNskn7invdewvLc3nU+iQM+cNiFh6nRpyHyjX5q+B
QbOzXKwEZuHeCa6iSNxn0qkm3XCrJAcTc6p//bejVMM2mekwE8PIddcaIiDqF3LF
sY5E0pNK
-----END CERTIFICATE-----
