Certificate:
    Data:
        Version: 3 (0x2)
        Serial Number: 268435671 (0x100000d7)
    Signature Algorithm: sha256WithRSAEncryption
        Issuer: C=DE, ST=Hessen, O=privacyidea, CN=CA001
        Validity
            Not Before: Aug 31 06:25:08 2018 GMT
            Not After : Aug 31 06:25:08 2019 GMT
        Subject: CN=selfservice,CN=user,O=realm1/emailAddress=meine
        Subject Public Key Info:
            Public Key Algorithm: rsaEncryption
                Public-Key: (2048 bit)
                Modulus:
                    00:cf:3c:d4:33:0e:12:c4:e6:da:cd:b6:56:a1:1c:
                    26:bb:26:1c:8a:4a:73:a8:58:8a:b6:1e:b3:8b:99:
                    d2:1d:07:c2:92:89:79:c0:69:d8:c8:df:28:61:98:
                    1e:b3:fe:ae:2b:bd:78:a9:f7:6e:47:dc:a3:a0:16:
                    8c:85:02:c1:4e:92:fd:72:6e:f0:c8:03:29:9b:b8:
                    00:6e:c0:83:95:c8:34:20:36:9c:b3:e5:e4:e6:76:
                    73:a3:1a:ad:40:96:e0:53:54:00:ec:76:79:9a:c6:
                    0d:7e:b6:bd:29:ec:83:f3:cb:89:a4:cb:6c:00:ba:
                    0c:c5:78:0f:ff:69:b8:94:f4:04:70:43:3f:d8:9e:
                    d7:a7:fb:5d:ce:75:8e:da:e7:c4:07:b1:9d:de:6f:
                    88:4b:b6:4d:9a:cf:f9:bc:fa:9f:cd:32:6d:f6:3a:
                    0b:0d:23:42:78:ec:97:42:bf:0e:4d:60:56:e1:d3:
                    02:f2:19:cb:84:57:90:e5:70:a1:a2:83:35:86:e2:
                    da:86:9f:f9:8a:c4:79:b3:52:28:da:cb:bb:34:ca:
                    d3:da:91:4a:cf:8d:76:a2:b2:6b:9b:f9:96:fd:09:
                    2a:da:11:23:4d:f0:cb:d6:b2:b1:0e:12:6c:9a:19:
                    65:98:87:ca:e4:ee:24:ce:44:ac:90:8f:9d:1b:c5:
                    2a:9d
                Exponent: 65537 (0x10001)
        X509v3 extensions:
            X509v3 Key Usage: 
                Digital Signature, Key Encipherment
            X509v3 Basic Constraints: 
                CA:FALSE
            Netscape Cert Type: 
                SSL Server
            Netscape Comment: 
                OpenSSL Generated Server Certificate
            X509v3 Subject Key Identifier: 
                4D:07:90:AD:FF:1D:0D:E7:1A:DD:D6:2E:FA:BA:34:CB:AA:1F:24:C6
            X509v3 Authority Key Identifier: 
                keyid:F4:A7:C0:CC:91:46:AF:64:F3:91:F2:27:F8:C8:B2:6F:8A:87:32:73
                DirName:/C=DE/ST=Hessen/O=privacyidea/CN=CA001
                serial:FB:C8:EB:AC:83:CD:12:07

            X509v3 Extended Key Usage: 
                TLS Web Server Authentication
    Signature Algorithm: sha256WithRSAEncryption
         11:67:57:52:5e:bc:f1:99:ca:55:b0:d0:c1:68:c6:a2:6b:63:
         bd:1d:a1:2e:7b:72:96:f5:91:15:7f:5f:63:f2:ba:2d:64:c8:
         0e:84:49:3e:a8:86:33:a1:25:17:56:fe:98:4b:69:08:16:2c:
         cb:4f:3b:10:0a:2b:d5:2e:d7:f0:03:e7:89:ac:ee:7f:82:c7:
         9e:9d:43:7e:33:af:eb:66:77:dd:72:a0:46:b3:64:29:4b:bc:
         13:dc:85:01:1f:1c:47:5f:bd:88:a7:39:b7:ea:88:38:d0:31:
         3a:a6:95:a5:3b:36:b6:07:82:55:32:d4:45:80:41:5f:f5:e4:
         0e:a2:64:a4:99:e7:43:c1:aa:50:d2:03:a7:98:aa:bb:8f:62:
         2f:b2:83:db:7a:4c:71:11:d7:24:9d:e8:40:c5:bd:0e:34:32:
         d0:82:93:4e:e7:fa:32:a9:43:df:d0:24:c6:91:87:17:db:b5:
         af:d9:e3:e4:56:be:1f:3c:e4:b8:33:f5:b6:a0:be:9a:b8:b3:
         6a:15:46:4d:82:35:cb:25:50:82:88:f7:44:0b:39:57:0a:19:
         d8:ac:20:5b:0d:d4:c0:e0:94:28:d3:5f:c4:63:7c:d3:33:3e:
         29:95:6e:e7:aa:b0:e1:b1:e9:e0:69:21:5f:34:3b:d3:59:76:
         c3:30:74:5c
-----BEGIN CERTIFICATE-----
MIIEDzCCAvegAwIBAgIEEAAA1zANBgkqhkiG9w0BAQsFADBEMQswCQYDVQQGEwJE
RTEPMA0GA1UECAwGSGVzc2VuMRQwEgYDVQQKDAtwcml2YWN5aWRlYTEOMAwGA1UE
AwwFQ0EwMDEwHhcNMTgwODMxMDYyNTA4WhcNMTkwODMxMDYyNTA4WjA9MSUwIwYD
VQQDDBxzZWxmc2VydmljZSxDTj11c2VyLE89cmVhbG0xMRQwEgYJKoZIhvcNAQkB
FgVtZWluZTCCASIwDQYJKoZIhvcNAQEBBQADggEPADCCAQoCggEBAM881DMOEsTm
2s22VqEcJrsmHIpKc6hYirYes4uZ0h0HwpKJecBp2MjfKGGYHrP+riu9eKn3bkfc
o6AWjIUCwU6S/XJu8MgDKZu4AG7Ag5XINCA2nLPl5OZ2c6MarUCW4FNUAOx2eZrG
DX62vSnsg/PLiaTLbAC6DMV4D/9puJT0BHBDP9ie16f7Xc51jtrnxAexnd5viEu2
TZrP+bz6n80ybfY6Cw0jQnjsl0K/Dk1gVuHTAvIZy4RXkOVwoaKDNYbi2oaf+YrE
ebNSKNrLuzTK09qRSs+NdqKya5v5lv0JKtoRI03wy9aysQ4SbJoZZZiHyuTuJM5E
rJCPnRvFKp0CAwEAAaOCAQ4wggEKMAsGA1UdDwQEAwIFoDAJBgNVHRMEAjAAMBEG
CWCGSAGG+EIBAQQEAwIGQDAzBglghkgBhvhCAQ0EJhYkT3BlblNTTCBHZW5lcmF0
ZWQgU2VydmVyIENlcnRpZmljYXRlMB0GA1UdDgQWBBRNB5Ct/x0N5xrd1i76ujTL
qh8kxjB0BgNVHSMEbTBrgBT0p8DMkUavZPOR8if4yLJviocyc6FIpEYwRDELMAkG
A1UEBhMCREUxDzANBgNVBAgMBkhlc3NlbjEUMBIGA1UECgwLcHJpdmFjeWlkZWEx
DjAMBgNVBAMMBUNBMDAxggkA+8jrrIPNEgcwEwYDVR0lBAwwCgYIKwYBBQUHAwEw
DQYJKoZIhvcNAQELBQADggEBABFnV1JevPGZylWw0MFoxqJrY70doS57cpb1kRV/
X2Pyui1kyA6EST6ohjOhJRdW/phLaQgWLMtPOxAKK9Uu1/AD54ms7n+Cx56dQ34z
r+tmd91yoEazZClLvBPchQEfHEdfvYinObfqiDjQMTqmlaU7NrYHglUy1EWAQV/1
5A6iZKSZ50PBqlDSA6eYqruPYi+yg9t6THER1ySd6EDFvQ40MtCCk07n+jKpQ9/Q
JMaRhxfbta/Z4+RWvh885Lgz9bagvpq4s2oVRk2CNcslUIKI90QLOVcKGdisIFsN
1MDglCjTX8RjfNMzPimVbueqsOGx6eBpIV80O9NZdsMwdFw=
-----END CERTIFICATE-----
