Certificate:
    Data:
        Version: 3 (0x2)
        Serial Number: 268435665 (0x100000d1)
    Signature Algorithm: sha256WithRSAEncryption
        Issuer: C=DE, ST=Hessen, O=privacyidea, CN=CA001
        Validity
            Not Before: Sep 11 10:16:32 2018 GMT
            Not After : Sep 11 10:16:32 2019 GMT
        Subject: C=DE, ST=Hessen, O=privacyidea, CN=requester.localdomain
        Subject Public Key Info:
            Public Key Algorithm: rsaEncryption
                Public-Key: (2048 bit)
                Modulus:
                    00:cd:be:14:4f:fa:ce:01:3f:42:22:1b:1d:9c:af:
                    dd:92:d2:7f:db:6c:b7:3e:39:43:43:6b:13:03:f1:
                    05:f4:07:74:bc:76:69:28:0b:af:19:8e:d7:fc:e3:
                    cd:c6:58:f2:ca:7f:08:6d:53:fc:07:02:44:24:c6:
                    b4:34:4c:8c:04:fe:33:0e:40:e2:20:ba:02:73:5a:
                    f7:f5:4f:63:6e:cc:c6:b6:df:54:1d:37:39:7d:51:
                    36:26:5f:bd:dc:3f:a8:8b:6b:a2:ae:b6:9d:d6:21:
                    e7:df:41:b8:7a:28:2a:68:48:ca:a8:2d:ed:e1:e9:
                    46:5e:5a:72:6d:b4:84:38:87:91:fd:94:11:0b:28:
                    84:c6:c2:2f:2a:fb:01:f9:36:7a:09:75:d1:33:88:
                    3c:73:41:5b:c8:bf:94:89:70:a1:f0:c0:b9:2e:50:
                    53:1e:b1:17:64:69:f4:2d:81:e0:a9:0d:0e:32:e9:
                    ba:55:8a:85:f1:1b:6f:49:79:b4:7f:88:c3:0d:3e:
                    54:88:9b:3d:1f:38:8c:04:f3:ee:6a:63:2b:f5:c6:
                    db:b4:83:aa:c4:78:41:3a:7d:4b:e1:c8:3e:71:ca:
                    1b:61:59:ea:c6:c4:ca:32:5e:c9:e9:bf:12:29:e6:
                    c6:c3:63:fe:a0:55:da:7a:f1:60:98:4d:26:ed:fa:
                    70:2d
                Exponent: 65537 (0x10001)
        X509v3 extensions:
            X509v3 Key Usage: 
                Digital Signature, Key Encipherment
            X509v3 Basic Constraints: 
                CA:FALSE
            Netscape Cert Type: 
                SSL Server
            Netscape Comment: 
                OpenSSL Generated Server Certificate
            X509v3 Subject Key Identifier: 
                53:3F:ED:5D:09:07:B3:65:7B:AB:45:C9:24:5B:09:77:80:0A:96:ED
            X509v3 Authority Key Identifier: 
                keyid:F4:A7:C0:CC:91:46:AF:64:F3:91:F2:27:F8:C8:B2:6F:8A:87:32:73
                DirName:/C=DE/ST=Hessen/O=privacyidea/CN=CA001
                serial:FB:C8:EB:AC:83:CD:12:07

            X509v3 Extended Key Usage: 
                TLS Web Server Authentication
    Signature Algorithm: sha256WithRSAEncryption
         1d:80:0c:43:2b:a4:19:18:92:09:de:2d:df:29:7b:21:98:8f:
         3d:68:0f:d8:4b:9a:ae:4c:59:35:4f:4f:f1:d2:cf:fa:00:50:
         d4:6e:44:0f:73:67:19:2b:0a:3d:14:12:16:68:c8:35:e8:96:
         50:03:9d:95:e4:b2:9e:da:01:25:62:cf:93:8f:73:50:35:d0:
         67:c5:5e:d3:84:36:24:8a:33:f0:a4:22:ed:11:9d:a4:3d:f1:
         c6:f9:13:a4:82:75:59:6a:da:1f:fc:5b:90:bf:5d:85:37:1b:
         d5:2c:98:3f:f8:86:ff:5e:02:69:00:3f:7c:d8:ab:79:d7:4c:
         92:21:dd:56:c7:0e:23:2b:88:f7:37:03:1d:2a:4c:41:c1:6f:
         bf:05:18:32:b1:f9:36:2c:77:c4:7d:59:01:b4:09:52:28:1d:
         60:09:03:5e:dc:85:3e:94:d5:9a:54:d7:df:82:df:f7:2c:dc:
         4f:19:23:b9:0b:74:0a:23:95:63:01:f0:97:dd:d9:c4:fa:ce:
         bc:cc:de:79:a8:94:81:8e:3c:74:1a:10:31:a1:69:31:47:33:
         50:3b:7f:44:86:99:b0:26:17:3e:f1:f2:49:a8:87:10:81:d1:
         c5:e1:d1:fc:0d:66:61:f6:b0:42:30:cf:9b:39:cb:6e:2f:26:
         e0:d5:22:5b
-----BEGIN CERTIFICATE-----
MIIEJjCCAw6gAwIBAgIEEAAA0TANBgkqhkiG9w0BAQsFADBEMQswCQYDVQQGEwJE
RTEPMA0GA1UECAwGSGVzc2VuMRQwEgYDVQQKDAtwcml2YWN5aWRlYTEOMAwGA1UE
AwwFQ0EwMDEwHhcNMTgwOTExMTAxNjMyWhcNMTkwOTExMTAxNjMyWjBUMQswCQYD
VQQGEwJERTEPMA0GA1UECAwGSGVzc2VuMRQwEgYDVQQKDAtwcml2YWN5aWRlYTEe
MBwGA1UEAwwVcmVxdWVzdGVyLmxvY2FsZG9tYWluMIIBIjANBgkqhkiG9w0BAQEF
AAOCAQ8AMIIBCgKCAQEAzb4UT/rOAT9CIhsdnK/dktJ/22y3PjlDQ2sTA/EF9Ad0
vHZpKAuvGY7X/OPNxljyyn8IbVP8BwJEJMa0NEyMBP4zDkDiILoCc1r39U9jbszG
tt9UHTc5fVE2Jl+93D+oi2uirrad1iHn30G4eigqaEjKqC3t4elGXlpybbSEOIeR
/ZQRCyiExsIvKvsB+TZ6CXXRM4g8c0FbyL+UiXCh8MC5LlBTHrEXZGn0LYHgqQ0O
Mum6VYqF8RtvSXm0f4jDDT5UiJs9HziMBPPuamMr9cbbtIOqxHhBOn1L4cg+ccob
YVnqxsTKMl7J6b8SKebGw2P+oFXaevFgmE0m7fpwLQIDAQABo4IBDjCCAQowCwYD
VR0PBAQDAgWgMAkGA1UdEwQCMAAwEQYJYIZIAYb4QgEBBAQDAgZAMDMGCWCGSAGG
+EIBDQQmFiRPcGVuU1NMIEdlbmVyYXRlZCBTZXJ2ZXIgQ2VydGlmaWNhdGUwHQYD
VR0OBBYEFFM/7V0JB7Nle6tFySRbCXeACpbtMHQGA1UdIwRtMGuAFPSnwMyRRq9k
85HyJ/jIsm+KhzJzoUikRjBEMQswCQYDVQQGEwJERTEPMA0GA1UECAwGSGVzc2Vu
MRQwEgYDVQQKDAtwcml2YWN5aWRlYTEOMAwGA1UEAwwFQ0EwMDGCCQD7yOusg80S
BzATBgNVHSUEDDAKBggrBgEFBQcDATANBgkqhkiG9w0BAQsFAAOCAQEAHYAMQyuk
GRiSCd4t3yl7IZiPPWgP2EuarkxZNU9P8dLP+gBQ1G5ED3NnGSsKPRQSFmjINeiW
UAOdleSyntoBJWLPk49zUDXQZ8Ve04Q2JIoz8KQi7RGdpD3xxvkTpIJ1WWraH/xb
kL9dhTcb1SyYP/iG/14CaQA/fNireddMkiHdVscOIyuI9zcDHSpMQcFvvwUYMrH5
Nix3xH1ZAbQJUigdYAkDXtyFPpTVmlTX34Lf9yzcTxkjuQt0CiOVYwHwl93ZxPrO
vMzeeaiUgY48dBoQMaFpMUczUDt/RIaZsCYXPvHySaiHEIHRxeHR/A1mYfawQjDP
mznLbi8m4NUiWw==
-----END CERTIFICATE-----
