Certificate:
    Data:
        Version: 3 (0x2)
        Serial Number: 268435667 (0x100000d3)
    Signature Algorithm: sha256WithRSAEncryption
        Issuer: C=DE, ST=Hessen, O=privacyidea, CN=CA001
        Validity
            Not Before: Sep  7 09:08:10 2018 GMT
            Not After : Sep  7 09:08:10 2019 GMT
        Subject: CN=Steve Test/emailAddress=steve@openssl.org
        Subject Public Key Info:
            Public Key Algorithm: rsaEncryption
                Public-Key: (2048 bit)
                Modulus:
                    00:d2:81:89:20:51:48:0f:73:f4:11:32:24:d5:1f:
                    1c:fd:5c:f5:b6:e6:c5:f0:52:81:dc:d2:af:66:4a:
                    7c:93:31:61:5c:af:d1:6d:06:70:03:60:7c:72:0c:
                    88:dd:49:cd:9e:02:6c:d2:5a:d7:53:0f:f3:da:be:
                    69:64:b5:0f:0c:00:e3:b3:50:47:a3:b3:9b:ba:13:
                    50:d6:58:5a:4b:ab:39:e0:11:ca:0a:27:67:03:78:
                    22:66:6d:92:1e:1b:5c:49:ae:e6:6b:d1:8e:3b:9d:
                    06:d3:c6:ac:4d:53:43:10:ab:e8:96:c1:87:82:97:
                    99:8f:20:d3:99:12:37:31:84:e1:8a:ff:29:03:5f:
                    22:90:3e:7f:9b:e0:20:c1:ad:dc:ae:4c:39:1a:31:
                    96:17:02:8c:b2:d9:b4:0d:20:12:9b:7d:86:54:fd:
                    33:fd:c1:2a:62:46:f8:60:96:cf:6e:01:6f:22:df:
                    13:47:e7:97:ec:05:72:23:a3:62:f8:fa:ef:ac:9c:
                    72:f0:37:cb:2f:37:cf:90:a8:27:51:86:c6:d7:78:
                    08:8f:7e:25:a2:15:70:a2:fb:1c:b6:15:5e:a0:97:
                    8b:81:4c:09:28:8a:27:3b:94:bc:71:db:5b:71:37:
                    9a:2b:16:e0:6f:b5:c9:f5:4b:4f:20:ba:65:cf:af:
                    ad:ad
                Exponent: 65537 (0x10001)
        X509v3 extensions:
            X509v3 Key Usage: 
                Digital Signature, Key Encipherment
            X509v3 Basic Constraints: 
                CA:FALSE
            Netscape Cert Type: 
                SSL Server
            Netscape Comment: 
                OpenSSL Generated Server Certificate
            X509v3 Subject Key Identifier: 
                E5:25:6D:3E:AF:0D:DD:3F:4C:F2:45:19:39:D5:14:DB:7E:9C:C0:AD
            X509v3 Authority Key Identifier: 
                keyid:F4:A7:C0:CC:91:46:AF:64:F3:91:F2:27:F8:C8:B2:6F:8A:87:32:73
                DirName:/C=DE/ST=Hessen/O=privacyidea/CN=CA001
                serial:FB:C8:EB:AC:83:CD:12:07

            X509v3 Extended Key Usage: 
                TLS Web Server Authentication
    Signature Algorithm: sha256WithRSAEncryption
         97:06:91:ff:1c:cf:77:4b:e9:d9:c7:c8:c9:b6:ce:c8:b0:ca:
         9d:a4:b3:a2:76:3f:7a:6e:ad:70:fd:d7:c3:ce:04:70:8e:41:
         a5:9a:f3:cd:6a:27:2f:56:18:bc:7a:5f:bd:ef:bb:25:17:2f:
         25:46:ab:f5:d8:a1:6b:48:05:ed:f9:68:7b:d2:a6:41:18:73:
         99:ae:02:be:75:05:7c:49:86:72:08:28:0f:98:1a:78:f8:fc:
         74:ed:53:16:f7:96:c5:54:81:1e:80:29:f8:2b:43:82:6c:82:
         a6:8c:ff:6a:d5:47:06:02:3d:b1:22:d6:28:a4:56:5d:87:63:
         cb:5d:c8:66:e9:0b:b3:37:ed:bf:23:80:a2:98:60:56:32:77:
         6c:32:b0:02:3f:e0:13:70:d9:47:a9:b5:51:41:11:b5:0b:63:
         22:53:0f:ea:3c:3d:ef:eb:ae:2c:e4:11:2c:4e:64:de:b7:5a:
         c2:72:f7:db:8f:f6:a3:ff:ee:60:5d:ba:d4:17:71:66:02:b8:
         f7:0e:ec:af:c3:3a:a5:96:23:e2:77:47:95:5b:d1:50:e4:3c:
         07:6f:cd:fa:f1:51:27:23:17:b3:35:66:21:c1:0c:51:e9:c7:
         92:67:85:56:79:57:a2:10:53:d7:c0:94:20:d5:44:ea:ff:cb:
         a6:58:17:4e
-----BEGIN CERTIFICATE-----
MIIECTCCAvGgAwIBAgIEEAAA0zANBgkqhkiG9w0BAQsFADBEMQswCQYDVQQGEwJE
RTEPMA0GA1UECAwGSGVzc2VuMRQwEgYDVQQKDAtwcml2YWN5aWRlYTEOMAwGA1UE
AwwFQ0EwMDEwHhcNMTgwOTA3MDkwODEwWhcNMTkwOTA3MDkwODEwWjA3MRMwEQYD
VQQDDApTdGV2ZSBUZXN0MSAwHgYJKoZIhvcNAQkBFhFzdGV2ZUBvcGVuc3NsLm9y
ZzCCASIwDQYJKoZIhvcNAQEBBQADggEPADCCAQoCggEBANKBiSBRSA9z9BEyJNUf
HP1c9bbmxfBSgdzSr2ZKfJMxYVyv0W0GcANgfHIMiN1JzZ4CbNJa11MP89q+aWS1
DwwA47NQR6Ozm7oTUNZYWkurOeARygonZwN4ImZtkh4bXEmu5mvRjjudBtPGrE1T
QxCr6JbBh4KXmY8g05kSNzGE4Yr/KQNfIpA+f5vgIMGt3K5MORoxlhcCjLLZtA0g
Ept9hlT9M/3BKmJG+GCWz24BbyLfE0fnl+wFciOjYvj676yccvA3yy83z5CoJ1GG
xtd4CI9+JaIVcKL7HLYVXqCXi4FMCSiKJzuUvHHbW3E3misW4G+1yfVLTyC6Zc+v
ra0CAwEAAaOCAQ4wggEKMAsGA1UdDwQEAwIFoDAJBgNVHRMEAjAAMBEGCWCGSAGG
+EIBAQQEAwIGQDAzBglghkgBhvhCAQ0EJhYkT3BlblNTTCBHZW5lcmF0ZWQgU2Vy
dmVyIENlcnRpZmljYXRlMB0GA1UdDgQWBBTlJW0+rw3dP0zyRRk51RTbfpzArTB0
BgNVHSMEbTBrgBT0p8DMkUavZPOR8if4yLJviocyc6FIpEYwRDELMAkGA1UEBhMC
REUxDzANBgNVBAgMBkhlc3NlbjEUMBIGA1UECgwLcHJpdmFjeWlkZWExDjAMBgNV
BAMMBUNBMDAxggkA+8jrrIPNEgcwEwYDVR0lBAwwCgYIKwYBBQUHAwEwDQYJKoZI
hvcNAQELBQADggEBAJcGkf8cz3dL6dnHyMm2zsiwyp2ks6J2P3purXD918POBHCO
QaWa881qJy9WGLx6X73vuyUXLyVGq/XYoWtIBe35aHvSpkEYc5muAr51BXxJhnII
KA+YGnj4/HTtUxb3lsVUgR6AKfgrQ4JsgqaM/2rVRwYCPbEi1iikVl2HY8tdyGbp
C7M37b8jgKKYYFYyd2wysAI/4BNw2UeptVFBEbULYyJTD+o8Pe/rrizkESxOZN63
WsJy99uP9qP/7mBdutQXcWYCuPcO7K/DOqWWI+J3R5Vb0VDkPAdvzfrxUScjF7M1
ZiHBDFHpx5JnhVZ5V6IQU9fAlCDVROr/y6ZYF04=
-----END CERTIFICATE-----
