Certificate:
    Data:
        Version: 3 (0x2)
        Serial Number: 268435668 (0x100000d4)
    Signature Algorithm: sha256WithRSAEncryption
        Issuer: C=DE, ST=Hessen, O=privacyidea, CN=CA001
        Validity
            Not Before: Sep  7 09:08:10 2018 GMT
            Not After : Sep 26 09:08:10 2020 GMT
        Subject: CN=Steve Test/emailAddress=steve@openssl.org
        Subject Public Key Info:
            Public Key Algorithm: rsaEncryption
                Public-Key: (2048 bit)
                Modulus:
                    00:d2:81:89:20:51:48:0f:73:f4:11:32:24:d5:1f:
                    1c:fd:5c:f5:b6:e6:c5:f0:52:81:dc:d2:af:66:4a:
                    7c:93:31:61:5c:af:d1:6d:06:70:03:60:7c:72:0c:
                    88:dd:49:cd:9e:02:6c:d2:5a:d7:53:0f:f3:da:be:
                    69:64:b5:0f:0c:00:e3:b3:50:47:a3:b3:9b:ba:13:
                    50:d6:58:5a:4b:ab:39:e0:11:ca:0a:27:67:03:78:
                    22:66:6d:92:1e:1b:5c:49:ae:e6:6b:d1:8e:3b:9d:
                    06:d3:c6:ac:4d:53:43:10:ab:e8:96:c1:87:82:97:
                    99:8f:20:d3:99:12:37:31:84:e1:8a:ff:29:03:5f:
                    22:90:3e:7f:9b:e0:20:c1:ad:dc:ae:4c:39:1a:31:
                    96:17:02:8c:b2:d9:b4:0d:20:12:9b:7d:86:54:fd:
                    33:fd:c1:2a:62:46:f8:60:96:cf:6e:01:6f:22:df:
                    13:47:e7:97:ec:05:72:23:a3:62:f8:fa:ef:ac:9c:
                    72:f0:37:cb:2f:37:cf:90:a8:27:51:86:c6:d7:78:
                    08:8f:7e:25:a2:15:70:a2:fb:1c:b6:15:5e:a0:97:
                    8b:81:4c:09:28:8a:27:3b:94:bc:71:db:5b:71:37:
                    9a:2b:16:e0:6f:b5:c9:f5:4b:4f:20:ba:65:cf:af:
                    ad:ad
                Exponent: 65537 (0x10001)
        X509v3 extensions:
            X509v3 Key Usage: 
                Digital Signature, Key Encipherment
            X509v3 Basic Constraints: 
                CA:FALSE
            Netscape Cert Type: 
                SSL Server
            Netscape Comment: 
                OpenSSL Generated Server Certificate
            X509v3 Subject Key Identifier: 
                E5:25:6D:3E:AF:0D:DD:3F:4C:F2:45:19:39:D5:14:DB:7E:9C:C0:AD
            X509v3 Authority Key Identifier: 
                keyid:F4:A7:C0:CC:91:46:AF:64:F3:91:F2:27:F8:C8:B2:6F:8A:87:32:73
                DirName:/C=DE/ST=Hessen/O=privacyidea/CN=CA001
                serial:FB:C8:EB:AC:83:CD:12:07

            X509v3 Extended Key Usage: 
                TLS Web Server Authentication
    Signature Algorithm: sha256WithRSAEncryption
         6c:5b:61:a0:a0:8a:26:a9:63:96:c9:47:bb:97:88:38:36:cf:
         39:85:fe:24:45:0c:4c:1d:16:09:24:40:d5:41:0f:73:90:18:
         74:63:ff:3e:20:08:a0:16:b5:79:b8:67:54:18:00:ac:27:ee:
         be:6f:08:e0:12:26:66:ce:0b:ea:17:d6:26:86:97:36:20:10:
         9d:5a:38:70:36:9b:d5:20:c9:d0:c8:f1:f6:9f:3c:a5:2b:10:
         9d:43:89:cd:4b:d6:5f:43:7e:70:e3:d6:8c:38:6a:7e:37:b1:
         1e:15:32:0a:18:cb:c2:69:a2:06:85:0c:e2:5e:07:b2:01:c1:
         cb:8f:47:ac:e2:4e:c3:2d:3e:9f:02:f0:0b:f5:56:25:87:b7:
         54:e0:13:14:d2:49:ec:c3:a7:1c:09:c5:96:9d:8f:d7:3c:f4:
         27:a7:c6:f0:5b:2d:ba:12:29:13:b9:86:57:78:32:95:8d:ca:
         02:2c:e0:03:e9:9e:81:e5:4e:ba:11:23:06:eb:15:63:ad:80:
         f6:13:7d:6c:7f:41:9e:b8:d6:ec:48:fc:c8:5b:2d:8a:7d:32:
         63:52:fe:27:d6:26:db:16:2f:99:72:9d:fb:00:71:36:f2:d6:
         1b:37:26:e7:24:50:f5:eb:0b:dc:c7:89:78:30:f0:4d:cf:fc:
         20:6c:a6:b0
-----BEGIN CERTIFICATE-----
MIIECTCCAvGgAwIBAgIEEAAA1DANBgkqhkiG9w0BAQsFADBEMQswCQYDVQQGEwJE
RTEPMA0GA1UECAwGSGVzc2VuMRQwEgYDVQQKDAtwcml2YWN5aWRlYTEOMAwGA1UE
AwwFQ0EwMDEwHhcNMTgwOTA3MDkwODEwWhcNMjAwOTI2MDkwODEwWjA3MRMwEQYD
VQQDDApTdGV2ZSBUZXN0MSAwHgYJKoZIhvcNAQkBFhFzdGV2ZUBvcGVuc3NsLm9y
ZzCCASIwDQYJKoZIhvcNAQEBBQADggEPADCCAQoCggEBANKBiSBRSA9z9BEyJNUf
HP1c9bbmxfBSgdzSr2ZKfJMxYVyv0W0GcANgfHIMiN1JzZ4CbNJa11MP89q+aWS1
DwwA47NQR6Ozm7oTUNZYWkurOeARygonZwN4ImZtkh4bXEmu5mvRjjudBtPGrE1T
QxCr6JbBh4KXmY8g05kSNzGE4Yr/KQNfIpA+f5vgIMGt3K5MORoxlhcCjLLZtA0g
Ept9hlT9M/3BKmJG+GCWz24BbyLfE0fnl+wFciOjYvj676yccvA3yy83z5CoJ1GG
xtd4CI9+JaIVcKL7HLYVXqCXi4FMCSiKJzuUvHHbW3E3misW4G+1yfVLTyC6Zc+v
ra0CAwEAAaOCAQ4wggEKMAsGA1UdDwQEAwIFoDAJBgNVHRMEAjAAMBEGCWCGSAGG
+EIBAQQEAwIGQDAzBglghkgBhvhCAQ0EJhYkT3BlblNTTCBHZW5lcmF0ZWQgU2Vy
dmVyIENlcnRpZmljYXRlMB0GA1UdDgQWBBTlJW0+rw3dP0zyRRk51RTbfpzArTB0
BgNVHSMEbTBrgBT0p8DMkUavZPOR8if4yLJviocyc6FIpEYwRDELMAkGA1UEBhMC
REUxDzANBgNVBAgMBkhlc3NlbjEUMBIGA1UECgwLcHJpdmFjeWlkZWExDjAMBgNV
BAMMBUNBMDAxggkA+8jrrIPNEgcwEwYDVR0lBAwwCgYIKwYBBQUHAwEwDQYJKoZI
hvcNAQELBQADggEBAGxbYaCgiiapY5bJR7uXiDg2zzmF/iRFDEwdFgkkQNVBD3OQ
GHRj/z4gCKAWtXm4Z1QYAKwn7r5vCOASJmbOC+oX1iaGlzYgEJ1aOHA2m9UgydDI
8fafPKUrEJ1Dic1L1l9DfnDj1ow4an43sR4VMgoYy8JpogaFDOJeB7IBwcuPR6zi
TsMtPp8C8Av1ViWHt1TgExTSSezDpxwJxZadj9c89CenxvBbLboSKRO5hld4MpWN
ygIs4APpnoHlTroRIwbrFWOtgPYTfWx/QZ641uxI/MhbLYp9MmNS/ifWJtsWL5ly
nfsAcTby1hs3JuckUPXrC9zHiXgw8E3P/CBsprA=
-----END CERTIFICATE-----
