Certificate:
    Data:
        Version: 3 (0x2)
        Serial Number: 268435670 (0x100000d6)
    Signature Algorithm: sha256WithRSAEncryption
        Issuer: C=DE, ST=Hessen, O=privacyidea, CN=CA001
        Validity
            Not Before: Sep  6 14:01:32 2018 GMT
            Not After : Sep  6 14:01:32 2019 GMT
        Subject: OU=realm1, CN=cornelius/emailAddress=user@localhost.localdomain
        Subject Public Key Info:
            Public Key Algorithm: rsaEncryption
                Public-Key: (2048 bit)
                Modulus:
                    00:b6:a4:8c:4b:b6:75:e5:32:48:7d:99:95:32:d0:
                    fa:23:ec:22:10:65:5e:10:9d:2e:24:af:94:d3:25:
                    6d:af:bf:16:7f:2f:1f:ed:af:97:45:b7:b6:e8:28:
                    2e:a4:61:58:d1:8d:83:f8:7f:4f:54:ef:23:0b:1d:
                    6b:31:ae:89:b5:c4:f2:72:6c:47:49:b1:8a:10:ad:
                    2f:6a:38:53:36:4b:fe:cf:da:9f:13:9f:7f:2e:82:
                    89:c3:54:7a:e1:5e:d4:7c:ae:24:71:54:31:cc:89:
                    5f:ea:fc:e1:ab:a8:72:1c:4c:67:a2:8e:1c:01:8b:
                    b9:8f:94:e7:8b:9c:d4:62:26:6e:54:df:ab:c1:3e:
                    0c:b0:db:28:47:b6:7c:a2:dd:63:04:30:0c:be:fb:
                    8b:3c:2d:cf:92:83:3b:89:04:3e:be:3b:2b:61:fa:
                    5e:1f:84:1f:f2:ce:3f:ee:1b:2d:cc:84:59:99:c0:
                    15:fa:6b:3b:f8:ed:2d:ff:70:c2:c2:e5:d3:1d:ab:
                    3e:13:4b:88:4d:9c:fe:3a:d9:cd:9b:9c:08:29:99:
                    d6:ac:f6:c4:1d:fe:93:a5:f0:43:54:01:89:e4:10:
                    a9:62:b5:1a:7f:bf:51:40:48:dd:78:f9:5d:eb:b2:
                    52:e9:7f:62:71:2e:f7:96:23:49:17:89:0e:d2:df:
                    db:69
                Exponent: 65537 (0x10001)
        X509v3 extensions:
            X509v3 Key Usage: 
                Digital Signature, Key Encipherment
            X509v3 Basic Constraints: 
                CA:FALSE
            Netscape Cert Type: 
                SSL Server
            Netscape Comment: 
                OpenSSL Generated Server Certificate
            X509v3 Subject Key Identifier: 
                0F:AF:B4:A6:87:F2:E1:15:FD:79:08:9C:EC:B6:FE:7B:EF:33:FC:4F
            X509v3 Authority Key Identifier: 
                keyid:F4:A7:C0:CC:91:46:AF:64:F3:91:F2:27:F8:C8:B2:6F:8A:87:32:73
                DirName:/C=DE/ST=Hessen/O=privacyidea/CN=CA001
                serial:FB:C8:EB:AC:83:CD:12:07

            X509v3 Extended Key Usage: 
                TLS Web Server Authentication
    Signature Algorithm: sha256WithRSAEncryption
         07:9e:9c:d8:99:36:3a:fd:4b:6e:a5:2f:b9:3a:5e:88:59:14:
         1b:aa:cb:0d:0b:44:d5:00:93:e5:30:a7:7d:06:3c:17:1e:e3:
         f9:53:3d:45:7a:d8:d6:12:ab:fc:2f:cc:a7:df:7b:6b:d4:30:
         9e:3a:5f:96:e1:01:84:22:49:95:1c:1a:11:06:86:e7:99:ee:
         22:72:e0:38:db:1c:dc:b3:ba:1a:b2:ca:d9:fb:86:47:9c:12:
         e6:a6:2c:4e:e2:fb:08:96:89:64:fe:fd:70:aa:ef:3e:c9:69:
         25:62:05:6c:7c:22:a6:b4:7b:83:19:ef:03:f7:59:e9:06:c7:
         74:82:40:27:9e:2d:0b:cc:90:06:0a:5e:78:5b:36:62:fd:0a:
         d9:36:f5:0d:68:bc:8b:85:7a:96:7f:6c:52:f2:9b:7e:18:86:
         6b:8d:4f:f9:42:9f:b8:ca:1e:1a:2c:92:e0:cf:36:5a:4a:c8:
         2e:1f:60:93:9d:93:a1:52:57:1c:e7:5f:af:e8:61:42:a5:d5:
         4e:5a:95:5a:94:f6:2e:18:bb:2d:61:85:be:25:7f:24:05:d7:
         f1:36:52:97:7c:c5:66:27:55:88:d1:e5:0d:bd:4f:3a:9b:3e:
         e7:bb:6e:cc:83:51:6a:56:c2:fc:f2:53:58:80:68:56:be:55:
         dc:d2:47:4f
-----BEGIN CERTIFICATE-----
MIIEIjCCAwqgAwIBAgIEEAAA1jANBgkqhkiG9w0BAQsFADBEMQswCQYDVQQGEwJE
RTEPMA0GA1UECAwGSGVzc2VuMRQwEgYDVQQKDAtwcml2YWN5aWRlYTEOMAwGA1UE
AwwFQ0EwMDEwHhcNMTgwOTA2MTQwMTMyWhcNMTkwOTA2MTQwMTMyWjBQMQ8wDQYD
VQQLDAZyZWFsbTExEjAQBgNVBAMMCWNvcm5lbGl1czEpMCcGCSqGSIb3DQEJARYa
dXNlckBsb2NhbGhvc3QubG9jYWxkb21haW4wggEiMA0GCSqGSIb3DQEBAQUAA4IB
DwAwggEKAoIBAQC2pIxLtnXlMkh9mZUy0Poj7CIQZV4QnS4kr5TTJW2vvxZ/Lx/t
r5dFt7boKC6kYVjRjYP4f09U7yMLHWsxrom1xPJybEdJsYoQrS9qOFM2S/7P2p8T
n38ugonDVHrhXtR8riRxVDHMiV/q/OGrqHIcTGeijhwBi7mPlOeLnNRiJm5U36vB
Pgyw2yhHtnyi3WMEMAy++4s8Lc+SgzuJBD6+Oyth+l4fhB/yzj/uGy3MhFmZwBX6
azv47S3/cMLC5dMdqz4TS4hNnP462c2bnAgpmdas9sQd/pOl8ENUAYnkEKlitRp/
v1FASN14+V3rslLpf2JxLveWI0kXiQ7S39tpAgMBAAGjggEOMIIBCjALBgNVHQ8E
BAMCBaAwCQYDVR0TBAIwADARBglghkgBhvhCAQEEBAMCBkAwMwYJYIZIAYb4QgEN
BCYWJE9wZW5TU0wgR2VuZXJhdGVkIFNlcnZlciBDZXJ0aWZpY2F0ZTAdBgNVHQ4E
FgQUD6+0pofy4RX9eQic7Lb+e+8z/E8wdAYDVR0jBG0wa4AU9KfAzJFGr2TzkfIn
+Miyb4qHMnOhSKRGMEQxCzAJBgNVBAYTAkRFMQ8wDQYDVQQIDAZIZXNzZW4xFDAS
BgNVBAoMC3ByaXZhY3lpZGVhMQ4wDAYDVQQDDAVDQTAwMYIJAPvI66yDzRIHMBMG
A1UdJQQMMAoGCCsGAQUFBwMBMA0GCSqGSIb3DQEBCwUAA4IBAQAHnpzYmTY6/Utu
pS+5Ol6IWRQbqssNC0TVAJPlMKd9BjwXHuP5Uz1FetjWEqv8L8yn33tr1DCeOl+W
4QGEIkmVHBoRBobnme4icuA42xzcs7oassrZ+4ZHnBLmpixO4vsIlolk/v1wqu8+
yWklYgVsfCKmtHuDGe8D91npBsd0gkAnni0LzJAGCl54WzZi/QrZNvUNaLyLhXqW
f2xS8pt+GIZrjU/5Qp+4yh4aLJLgzzZaSsguH2CTnZOhUlcc51+v6GFCpdVOWpVa
lPYuGLstYYW+JX8kBdfxNlKXfMVmJ1WI0eUNvU86mz7nu27Mg1FqVsL88lNYgGhW
vlXc0kdP
-----END CERTIFICATE-----
