Certificate:
    Data:
        Version: 3 (0x2)
        Serial Number: 268435666 (0x100000d2)
    Signature Algorithm: sha256WithRSAEncryption
        Issuer: C=DE, ST=Hessen, O=privacyidea, CN=CA001
        Validity
            Not Before: Sep  7 09:08:09 2018 GMT
            Not After : Sep  7 09:08:09 2019 GMT
        Subject: C=DE, ST=Hessen, O=privacyidea, CN=usercert
        Subject Public Key Info:
            Public Key Algorithm: rsaEncryption
                Public-Key: (2048 bit)
                Modulus:
                    00:dc:2f:d1:5f:29:97:d4:7c:c3:53:c8:30:bd:4b:
                    67:70:2c:24:6b:b8:5e:eb:21:7a:48:12:56:7c:81:
                    5c:48:75:b6:68:eb:f6:f2:98:4e:50:51:d1:7f:6c:
                    73:f3:0a:a7:ae:be:48:5e:e5:d6:e1:d9:2a:7c:32:
                    6e:4e:fd:08:f6:5a:54:49:23:73:c3:b9:07:18:d1:
                    ef:b3:ac:f8:8a:dc:94:96:a4:90:3a:8e:74:df:e6:
                    0d:37:1b:bd:5b:b7:25:1a:56:39:da:6f:91:aa:5e:
                    1c:74:f3:f9:7c:14:01:83:12:65:76:c7:bb:fe:36:
                    5b:95:e9:72:65:83:ed:3e:98:30:71:fa:87:dd:a3:
                    36:5a:30:03:2e:26:e0:61:d1:bf:02:3f:b6:06:1f:
                    4a:89:28:1c:5c:a2:ff:4e:be:94:e6:8c:e0:da:82:
                    f1:9d:29:32:48:30:73:b4:04:f6:42:1e:be:f7:e2:
                    32:32:27:3c:9d:89:2f:70:3e:85:9a:6f:5c:c5:09:
                    c0:8c:32:2f:72:22:c9:d2:95:1f:b6:ac:72:60:72:
                    b7:82:4d:6b:ce:5b:e3:00:d0:d2:2f:58:c6:e0:10:
                    e5:51:ca:4d:3b:2e:e6:7e:ab:84:d6:56:f1:93:35:
                    a0:93:64:26:81:75:2f:91:b5:16:06:38:0b:db:cc:
                    2d:07
                Exponent: 65537 (0x10001)
        X509v3 extensions:
            X509v3 Key Usage: 
                Digital Signature, Key Encipherment
            X509v3 Basic Constraints: 
                CA:FALSE
            Netscape Cert Type: 
                SSL Server
            Netscape Comment: 
                OpenSSL Generated Server Certificate
            X509v3 Subject Key Identifier: 
                FC:14:D1:F0:4B:8D:00:90:F2:F5:B8:71:9E:4E:97:C3:92:54:AD:0B
            X509v3 Authority Key Identifier: 
                keyid:F4:A7:C0:CC:91:46:AF:64:F3:91:F2:27:F8:C8:B2:6F:8A:87:32:73
                DirName:/C=DE/ST=Hessen/O=privacyidea/CN=CA001
                serial:FB:C8:EB:AC:83:CD:12:07

            X509v3 Extended Key Usage: 
                TLS Web Server Authentication
    Signature Algorithm: sha256WithRSAEncryption
         64:34:ed:8c:cc:cc:7b:f1:93:08:82:3f:14:f8:4f:6c:80:dc:
         24:48:9c:e2:f7:9f:f4:3b:d5:ce:bf:43:bc:26:bd:ea:df:41:
         81:68:e0:3f:4c:37:a9:78:78:42:3f:3e:e7:88:da:86:71:4e:
         34:ba:ba:04:28:26:8e:b3:42:ff:30:02:9b:5a:6e:8f:38:02:
         e7:eb:51:49:a7:57:1f:82:e3:d8:6c:a4:a8:ad:ca:d0:e6:dd:
         ed:84:00:02:ff:0d:12:d2:e2:40:71:c5:ae:30:5f:bb:44:57:
         97:3b:a0:8e:52:f9:82:2b:e6:ec:4f:95:21:10:ea:d1:68:f9:
         4a:a2:53:b5:a6:22:ac:41:34:2b:a0:1a:6d:d0:fb:1d:9d:ef:
         f1:49:18:c9:a0:02:99:bc:0c:64:53:71:47:d9:2b:84:f7:0c:
         61:1c:f8:2b:ba:a1:6c:d4:06:d4:c7:2d:88:ec:f2:be:e0:7a:
         f5:b1:1f:2c:0c:f7:cc:b0:aa:4f:34:c6:08:8e:4b:06:da:59:
         e2:69:69:12:5d:45:12:77:b7:cf:83:99:58:5d:3f:43:e7:d8:
         04:ae:23:ba:8b:8f:4c:3d:f1:cd:8e:5a:04:2d:2e:6e:20:8d:
         ce:30:18:b3:7e:eb:bc:6a:41:64:dd:62:fc:b2:d9:f4:05:55:
         2d:3c:1e:07
-----BEGIN CERTIFICATE-----
MIIEGTCCAwGgAwIBAgIEEAAA0jANBgkqhkiG9w0BAQsFADBEMQswCQYDVQQGEwJE
RTEPMA0GA1UECAwGSGVzc2VuMRQwEgYDVQQKDAtwcml2YWN5aWRlYTEOMAwGA1UE
AwwFQ0EwMDEwHhcNMTgwOTA3MDkwODA5WhcNMTkwOTA3MDkwODA5WjBHMQswCQYD
VQQGEwJERTEPMA0GA1UECAwGSGVzc2VuMRQwEgYDVQQKDAtwcml2YWN5aWRlYTER
MA8GA1UEAwwIdXNlcmNlcnQwggEiMA0GCSqGSIb3DQEBAQUAA4IBDwAwggEKAoIB
AQDcL9FfKZfUfMNTyDC9S2dwLCRruF7rIXpIElZ8gVxIdbZo6/bymE5QUdF/bHPz
Cqeuvkhe5dbh2Sp8Mm5O/Qj2WlRJI3PDuQcY0e+zrPiK3JSWpJA6jnTf5g03G71b
tyUaVjnab5GqXhx08/l8FAGDEmV2x7v+NluV6XJlg+0+mDBx+ofdozZaMAMuJuBh
0b8CP7YGH0qJKBxcov9OvpTmjODagvGdKTJIMHO0BPZCHr734jIyJzydiS9wPoWa
b1zFCcCMMi9yIsnSlR+2rHJgcreCTWvOW+MA0NIvWMbgEOVRyk07LuZ+q4TWVvGT
NaCTZCaBdS+RtRYGOAvbzC0HAgMBAAGjggEOMIIBCjALBgNVHQ8EBAMCBaAwCQYD
VR0TBAIwADARBglghkgBhvhCAQEEBAMCBkAwMwYJYIZIAYb4QgENBCYWJE9wZW5T
U0wgR2VuZXJhdGVkIFNlcnZlciBDZXJ0aWZpY2F0ZTAdBgNVHQ4EFgQU/BTR8EuN
AJDy9bhxnk6Xw5JUrQswdAYDVR0jBG0wa4AU9KfAzJFGr2TzkfIn+Miyb4qHMnOh
SKRGMEQxCzAJBgNVBAYTAkRFMQ8wDQYDVQQIDAZIZXNzZW4xFDASBgNVBAoMC3By
aXZhY3lpZGVhMQ4wDAYDVQQDDAVDQTAwMYIJAPvI66yDzRIHMBMGA1UdJQQMMAoG
CCsGAQUFBwMBMA0GCSqGSIb3DQEBCwUAA4IBAQBkNO2MzMx78ZMIgj8U+E9sgNwk
SJzi95/0O9XOv0O8Jr3q30GBaOA/TDepeHhCPz7niNqGcU40uroEKCaOs0L/MAKb
Wm6POALn61FJp1cfguPYbKSorcrQ5t3thAAC/w0S0uJAccWuMF+7RFeXO6COUvmC
K+bsT5UhEOrRaPlKolO1piKsQTQroBpt0Psdne/xSRjJoAKZvAxkU3FH2SuE9wxh
HPgruqFs1AbUxy2I7PK+4Hr1sR8sDPfMsKpPNMYIjksG2lniaWkSXUUSd7fPg5lY
XT9D59gEriO6i49MPfHNjloELS5uII3OMBizfuu8akFk3WL8stn0BVUtPB4H
-----END CERTIFICATE-----
