Certificate:
    Data:
        Version: 3 (0x2)
        Serial Number: 268435666 (0x100000d2)
    Signature Algorithm: sha256WithRSAEncryption
        Issuer: C=DE, ST=Hessen, O=privacyidea, CN=CA001
        Validity
            Not Before: Sep 11 10:24:41 2018 GMT
            Not After : Sep 11 10:24:41 2019 GMT
        Subject: C=DE, ST=Hessen, O=privacyidea, CN=requester.localdomain
        Subject Public Key Info:
            Public Key Algorithm: rsaEncryption
                Public-Key: (2048 bit)
                Modulus:
                    00:cd:be:14:4f:fa:ce:01:3f:42:22:1b:1d:9c:af:
                    dd:92:d2:7f:db:6c:b7:3e:39:43:43:6b:13:03:f1:
                    05:f4:07:74:bc:76:69:28:0b:af:19:8e:d7:fc:e3:
                    cd:c6:58:f2:ca:7f:08:6d:53:fc:07:02:44:24:c6:
                    b4:34:4c:8c:04:fe:33:0e:40:e2:20:ba:02:73:5a:
                    f7:f5:4f:63:6e:cc:c6:b6:df:54:1d:37:39:7d:51:
                    36:26:5f:bd:dc:3f:a8:8b:6b:a2:ae:b6:9d:d6:21:
                    e7:df:41:b8:7a:28:2a:68:48:ca:a8:2d:ed:e1:e9:
                    46:5e:5a:72:6d:b4:84:38:87:91:fd:94:11:0b:28:
                    84:c6:c2:2f:2a:fb:01:f9:36:7a:09:75:d1:33:88:
                    3c:73:41:5b:c8:bf:94:89:70:a1:f0:c0:b9:2e:50:
                    53:1e:b1:17:64:69:f4:2d:81:e0:a9:0d:0e:32:e9:
                    ba:55:8a:85:f1:1b:6f:49:79:b4:7f:88:c3:0d:3e:
                    54:88:9b:3d:1f:38:8c:04:f3:ee:6a:63:2b:f5:c6:
                    db:b4:83:aa:c4:78:41:3a:7d:4b:e1:c8:3e:71:ca:
                    1b:61:59:ea:c6:c4:ca:32:5e:c9:e9:bf:12:29:e6:
                    c6:c3:63:fe:a0:55:da:7a:f1:60:98:4d:26:ed:fa:
                    70:2d
                Exponent: 65537 (0x10001)
        X509v3 extensions:
            X509v3 Key Usage: 
                Digital Signature, Key Encipherment
            X509v3 Basic Constraints: 
                CA:FALSE
            Netscape Cert Type: 
                SSL Server
            Netscape Comment: 
                OpenSSL Generated Server Certificate
            X509v3 Subject Key Identifier: 
                53:3F:ED:5D:09:07:B3:65:7B:AB:45:C9:24:5B:09:77:80:0A:96:ED
            X509v3 Authority Key Identifier: 
                keyid:F4:A7:C0:CC:91:46:AF:64:F3:91:F2:27:F8:C8:B2:6F:8A:87:32:73
                DirName:/C=DE/ST=Hessen/O=privacyidea/CN=CA001
                serial:FB:C8:EB:AC:83:CD:12:07

            X509v3 Extended Key Usage: 
                TLS Web Server Authentication
    Signature Algorithm: sha256WithRSAEncryption
         42:92:b8:16:77:3f:b5:74:b2:db:96:aa:d4:20:bd:98:d1:bc:
         1a:c5:57:bd:93:28:24:23:b4:29:ef:66:18:e2:01:72:24:1c:
         f2:86:e0:bf:af:f9:26:76:c1:be:8b:4c:ee:af:a4:55:96:00:
         2b:c1:02:40:9b:16:8a:53:42:49:b1:86:33:ee:33:c0:5a:ed:
         2d:ec:b2:f0:8e:1a:d3:48:bf:03:e8:82:fe:cb:d0:25:fb:32:
         33:f4:4f:c0:ce:aa:5c:06:73:cf:b4:36:32:a1:14:e6:ee:ca:
         3e:6b:73:93:cd:52:bd:7c:e7:8f:17:bb:63:e2:b3:14:65:d1:
         12:79:fe:14:f3:4e:3c:df:d1:f2:5a:0b:db:0f:ac:59:cd:ff:
         1c:07:d5:15:6b:90:39:43:31:0a:81:62:63:2c:48:8a:54:9c:
         93:d5:56:44:92:8f:7e:a8:2f:cc:73:1f:34:d8:65:b5:57:b3:
         14:8c:21:c5:d5:c7:6a:20:63:6f:f9:f7:e9:7e:fe:f2:ea:4c:
         6e:c5:53:4b:f1:7f:91:c5:ec:3f:cd:be:a8:80:a1:d0:75:ec:
         e7:38:63:37:87:2a:d6:77:e2:48:76:61:19:aa:a8:d8:bb:53:
         f0:5c:37:dd:a2:c9:65:fb:48:b5:92:4c:57:e6:d1:78:ac:ab:
         4e:c4:16:c2
-----BEGIN CERTIFICATE-----
MIIEJjCCAw6gAwIBAgIEEAAA0jANBgkqhkiG9w0BAQsFADBEMQswCQYDVQQGEwJE
RTEPMA0GA1UECAwGSGVzc2VuMRQwEgYDVQQKDAtwcml2YWN5aWRlYTEOMAwGA1UE
AwwFQ0EwMDEwHhcNMTgwOTExMTAyNDQxWhcNMTkwOTExMTAyNDQxWjBUMQswCQYD
VQQGEwJERTEPMA0GA1UECAwGSGVzc2VuMRQwEgYDVQQKDAtwcml2YWN5aWRlYTEe
MBwGA1UEAwwVcmVxdWVzdGVyLmxvY2FsZG9tYWluMIIBIjANBgkqhkiG9w0BAQEF
AAOCAQ8AMIIBCgKCAQEAzb4UT/rOAT9CIhsdnK/dktJ/22y3PjlDQ2sTA/EF9Ad0
vHZpKAuvGY7X/OPNxljyyn8IbVP8BwJEJMa0NEyMBP4zDkDiILoCc1r39U9jbszG
tt9UHTc5fVE2Jl+93D+oi2uirrad1iHn30G4eigqaEjKqC3t4elGXlpybbSEOIeR
/ZQRCyiExsIvKvsB+TZ6CXXRM4g8c0FbyL+UiXCh8MC5LlBTHrEXZGn0LYHgqQ0O
Mum6VYqF8RtvSXm0f4jDDT5UiJs9HziMBPPuamMr9cbbtIOqxHhBOn1L4cg+ccob
YVnqxsTKMl7J6b8SKebGw2P+oFXaevFgmE0m7fpwLQIDAQABo4IBDjCCAQowCwYD
VR0PBAQDAgWgMAkGA1UdEwQCMAAwEQYJYIZIAYb4QgEBBAQDAgZAMDMGCWCGSAGG
+EIBDQQmFiRPcGVuU1NMIEdlbmVyYXRlZCBTZXJ2ZXIgQ2VydGlmaWNhdGUwHQYD
VR0OBBYEFFM/7V0JB7Nle6tFySRbCXeACpbtMHQGA1UdIwRtMGuAFPSnwMyRRq9k
85HyJ/jIsm+KhzJzoUikRjBEMQswCQYDVQQGEwJERTEPMA0GA1UECAwGSGVzc2Vu
MRQwEgYDVQQKDAtwcml2YWN5aWRlYTEOMAwGA1UEAwwFQ0EwMDGCCQD7yOusg80S
BzATBgNVHSUEDDAKBggrBgEFBQcDATANBgkqhkiG9w0BAQsFAAOCAQEAQpK4Fnc/
tXSy25aq1CC9mNG8GsVXvZMoJCO0Ke9mGOIBciQc8obgv6/5JnbBvotM7q+kVZYA
K8ECQJsWilNCSbGGM+4zwFrtLeyy8I4a00i/A+iC/svQJfsyM/RPwM6qXAZzz7Q2
MqEU5u7KPmtzk81SvXznjxe7Y+KzFGXREnn+FPNOPN/R8loL2w+sWc3/HAfVFWuQ
OUMxCoFiYyxIilSck9VWRJKPfqgvzHMfNNhltVezFIwhxdXHaiBjb/n36X7+8upM
bsVTS/F/kcXsP82+qICh0HXs5zhjN4cq1nfiSHZhGaqo2LtT8Fw33aLJZftItZJM
V+bReKyrTsQWwg==
-----END CERTIFICATE-----
