Certificate:
    Data:
        Version: 3 (0x2)
        Serial Number: 268435671 (0x100000d7)
    Signature Algorithm: sha256WithRSAEncryption
        Issuer: C=DE, ST=Hessen, O=privacyidea, CN=CA001
        Validity
            Not Before: Sep 17 20:02:47 2018 GMT
            Not After : Sep 17 20:02:47 2019 GMT
        Subject: CN=selfservice,CN=user,O=realm1/emailAddress=meine
        Subject Public Key Info:
            Public Key Algorithm: rsaEncryption
                Public-Key: (2048 bit)
                Modulus:
                    00:cf:3c:d4:33:0e:12:c4:e6:da:cd:b6:56:a1:1c:
                    26:bb:26:1c:8a:4a:73:a8:58:8a:b6:1e:b3:8b:99:
                    d2:1d:07:c2:92:89:79:c0:69:d8:c8:df:28:61:98:
                    1e:b3:fe:ae:2b:bd:78:a9:f7:6e:47:dc:a3:a0:16:
                    8c:85:02:c1:4e:92:fd:72:6e:f0:c8:03:29:9b:b8:
                    00:6e:c0:83:95:c8:34:20:36:9c:b3:e5:e4:e6:76:
                    73:a3:1a:ad:40:96:e0:53:54:00:ec:76:79:9a:c6:
                    0d:7e:b6:bd:29:ec:83:f3:cb:89:a4:cb:6c:00:ba:
                    0c:c5:78:0f:ff:69:b8:94:f4:04:70:43:3f:d8:9e:
                    d7:a7:fb:5d:ce:75:8e:da:e7:c4:07:b1:9d:de:6f:
                    88:4b:b6:4d:9a:cf:f9:bc:fa:9f:cd:32:6d:f6:3a:
                    0b:0d:23:42:78:ec:97:42:bf:0e:4d:60:56:e1:d3:
                    02:f2:19:cb:84:57:90:e5:70:a1:a2:83:35:86:e2:
                    da:86:9f:f9:8a:c4:79:b3:52:28:da:cb:bb:34:ca:
                    d3:da:91:4a:cf:8d:76:a2:b2:6b:9b:f9:96:fd:09:
                    2a:da:11:23:4d:f0:cb:d6:b2:b1:0e:12:6c:9a:19:
                    65:98:87:ca:e4:ee:24:ce:44:ac:90:8f:9d:1b:c5:
                    2a:9d
                Exponent: 65537 (0x10001)
        X509v3 extensions:
            X509v3 Key Usage: 
                Digital Signature, Key Encipherment
            X509v3 Basic Constraints: 
                CA:FALSE
            Netscape Cert Type: 
                SSL Server
            Netscape Comment: 
                OpenSSL Generated Server Certificate
            X509v3 Subject Key Identifier: 
                4D:07:90:AD:FF:1D:0D:E7:1A:DD:D6:2E:FA:BA:34:CB:AA:1F:24:C6
            X509v3 Authority Key Identifier: 
                keyid:F4:A7:C0:CC:91:46:AF:64:F3:91:F2:27:F8:C8:B2:6F:8A:87:32:73
                DirName:/C=DE/ST=Hessen/O=privacyidea/CN=CA001
                serial:FB:C8:EB:AC:83:CD:12:07

            X509v3 Extended Key Usage: 
                TLS Web Server Authentication
    Signature Algorithm: sha256WithRSAEncryption
         9e:65:1d:f8:35:1d:96:9c:a9:31:14:8d:76:76:11:c8:d3:f6:
         3e:ff:6f:1a:54:79:40:cf:07:a6:92:4d:df:25:c4:65:7c:c5:
         f8:bd:f1:e1:80:76:0c:00:bd:d2:20:35:c4:44:42:b8:f8:71:
         4d:8c:b7:64:71:2d:e2:01:86:50:c4:7d:8d:1d:3e:e6:54:72:
         3b:51:d9:bb:6d:d2:0c:d3:5e:ae:61:1b:82:3c:2f:02:23:9a:
         eb:f5:a1:f2:e6:b9:3e:25:5d:98:ec:9d:b2:8e:5e:ba:bb:f6:
         37:4b:29:d6:65:da:9e:0c:a0:aa:a4:63:a2:8d:4c:cc:cc:5e:
         19:e6:79:09:b6:90:59:22:77:b0:61:a7:f5:10:b7:de:22:33:
         52:70:5a:5c:8c:6e:4b:bc:5c:17:ac:ce:22:c3:b5:09:10:dc:
         01:f6:86:9f:29:1b:d5:81:12:6d:46:e3:87:5a:90:b8:92:b1:
         1d:26:18:39:fe:70:2b:d0:82:74:f3:16:14:15:42:02:fe:35:
         5c:72:bc:22:03:89:82:62:95:65:10:f8:7b:7b:48:f6:77:78:
         53:fe:2b:cd:c5:db:83:32:25:a7:d0:21:dd:f5:dc:b3:b0:b0:
         21:62:03:ce:79:85:af:d6:52:f7:4d:74:31:e8:f1:19:d2:c3:
         49:b5:fe:64
-----BEGIN CERTIFICATE-----
MIIEDzCCAvegAwIBAgIEEAAA1zANBgkqhkiG9w0BAQsFADBEMQswCQYDVQQGEwJE
RTEPMA0GA1UECAwGSGVzc2VuMRQwEgYDVQQKDAtwcml2YWN5aWRlYTEOMAwGA1UE
AwwFQ0EwMDEwHhcNMTgwOTE3MjAwMjQ3WhcNMTkwOTE3MjAwMjQ3WjA9MSUwIwYD
VQQDDBxzZWxmc2VydmljZSxDTj11c2VyLE89cmVhbG0xMRQwEgYJKoZIhvcNAQkB
FgVtZWluZTCCASIwDQYJKoZIhvcNAQEBBQADggEPADCCAQoCggEBAM881DMOEsTm
2s22VqEcJrsmHIpKc6hYirYes4uZ0h0HwpKJecBp2MjfKGGYHrP+riu9eKn3bkfc
o6AWjIUCwU6S/XJu8MgDKZu4AG7Ag5XINCA2nLPl5OZ2c6MarUCW4FNUAOx2eZrG
DX62vSnsg/PLiaTLbAC6DMV4D/9puJT0BHBDP9ie16f7Xc51jtrnxAexnd5viEu2
TZrP+bz6n80ybfY6Cw0jQnjsl0K/Dk1gVuHTAvIZy4RXkOVwoaKDNYbi2oaf+YrE
ebNSKNrLuzTK09qRSs+NdqKya5v5lv0JKtoRI03wy9aysQ4SbJoZZZiHyuTuJM5E
rJCPnRvFKp0CAwEAAaOCAQ4wggEKMAsGA1UdDwQEAwIFoDAJBgNVHRMEAjAAMBEG
CWCGSAGG+EIBAQQEAwIGQDAzBglghkgBhvhCAQ0EJhYkT3BlblNTTCBHZW5lcmF0
ZWQgU2VydmVyIENlcnRpZmljYXRlMB0GA1UdDgQWBBRNB5Ct/x0N5xrd1i76ujTL
qh8kxjB0BgNVHSMEbTBrgBT0p8DMkUavZPOR8if4yLJviocyc6FIpEYwRDELMAkG
A1UEBhMCREUxDzANBgNVBAgMBkhlc3NlbjEUMBIGA1UECgwLcHJpdmFjeWlkZWEx
DjAMBgNVBAMMBUNBMDAxggkA+8jrrIPNEgcwEwYDVR0lBAwwCgYIKwYBBQUHAwEw
DQYJKoZIhvcNAQELBQADggEBAJ5lHfg1HZacqTEUjXZ2EcjT9j7/bxpUeUDPB6aS
Td8lxGV8xfi98eGAdgwAvdIgNcREQrj4cU2Mt2RxLeIBhlDEfY0dPuZUcjtR2btt
0gzTXq5hG4I8LwIjmuv1ofLmuT4lXZjsnbKOXrq79jdLKdZl2p4MoKqkY6KNTMzM
XhnmeQm2kFkid7Bhp/UQt94iM1JwWlyMbku8XBesziLDtQkQ3AH2hp8pG9WBEm1G
44dakLiSsR0mGDn+cCvQgnTzFhQVQgL+NVxyvCIDiYJilWUQ+Ht7SPZ3eFP+K83F
24MyJafQId313LOwsCFiA855ha/WUvdNdDHo8RnSw0m1/mQ=
-----END CERTIFICATE-----
