Certificate:
    Data:
        Version: 3 (0x2)
        Serial Number: 268435666 (0x100000d2)
    Signature Algorithm: sha256WithRSAEncryption
        Issuer: C=DE, ST=Hessen, O=privacyidea, CN=CA001
        Validity
            Not Before: Sep 17 19:49:14 2018 GMT
            Not After : Sep 17 19:49:14 2019 GMT
        Subject: C=DE, ST=Hessen, O=privacyidea, CN=usercert
        Subject Public Key Info:
            Public Key Algorithm: rsaEncryption
                Public-Key: (2048 bit)
                Modulus:
                    00:dc:2f:d1:5f:29:97:d4:7c:c3:53:c8:30:bd:4b:
                    67:70:2c:24:6b:b8:5e:eb:21:7a:48:12:56:7c:81:
                    5c:48:75:b6:68:eb:f6:f2:98:4e:50:51:d1:7f:6c:
                    73:f3:0a:a7:ae:be:48:5e:e5:d6:e1:d9:2a:7c:32:
                    6e:4e:fd:08:f6:5a:54:49:23:73:c3:b9:07:18:d1:
                    ef:b3:ac:f8:8a:dc:94:96:a4:90:3a:8e:74:df:e6:
                    0d:37:1b:bd:5b:b7:25:1a:56:39:da:6f:91:aa:5e:
                    1c:74:f3:f9:7c:14:01:83:12:65:76:c7:bb:fe:36:
                    5b:95:e9:72:65:83:ed:3e:98:30:71:fa:87:dd:a3:
                    36:5a:30:03:2e:26:e0:61:d1:bf:02:3f:b6:06:1f:
                    4a:89:28:1c:5c:a2:ff:4e:be:94:e6:8c:e0:da:82:
                    f1:9d:29:32:48:30:73:b4:04:f6:42:1e:be:f7:e2:
                    32:32:27:3c:9d:89:2f:70:3e:85:9a:6f:5c:c5:09:
                    c0:8c:32:2f:72:22:c9:d2:95:1f:b6:ac:72:60:72:
                    b7:82:4d:6b:ce:5b:e3:00:d0:d2:2f:58:c6:e0:10:
                    e5:51:ca:4d:3b:2e:e6:7e:ab:84:d6:56:f1:93:35:
                    a0:93:64:26:81:75:2f:91:b5:16:06:38:0b:db:cc:
                    2d:07
                Exponent: 65537 (0x10001)
        X509v3 extensions:
            X509v3 Key Usage: 
                Digital Signature, Key Encipherment
            X509v3 Basic Constraints: 
                CA:FALSE
            Netscape Cert Type: 
                SSL Server
            Netscape Comment: 
                OpenSSL Generated Server Certificate
            X509v3 Subject Key Identifier: 
                FC:14:D1:F0:4B:8D:00:90:F2:F5:B8:71:9E:4E:97:C3:92:54:AD:0B
            X509v3 Authority Key Identifier: 
                keyid:F4:A7:C0:CC:91:46:AF:64:F3:91:F2:27:F8:C8:B2:6F:8A:87:32:73
                DirName:/C=DE/ST=Hessen/O=privacyidea/CN=CA001
                serial:FB:C8:EB:AC:83:CD:12:07

            X509v3 Extended Key Usage: 
                TLS Web Server Authentication
    Signature Algorithm: sha256WithRSAEncryption
         2b:80:e0:1b:01:b8:7c:d7:54:df:fd:a7:d0:44:ee:88:7d:9c:
         dc:9c:b0:30:5e:b5:35:c2:09:31:37:e9:a5:fc:a3:11:13:c7:
         58:f4:c8:75:22:94:3c:36:03:cf:75:41:14:3d:9f:e4:3b:7e:
         83:72:1a:07:ed:c0:97:47:21:50:f1:d5:69:b4:10:09:10:65:
         a3:6b:52:8f:aa:8f:0b:0f:c5:c2:20:f8:6c:4e:05:a6:d8:3b:
         32:1f:a8:2f:78:7f:75:af:2a:ff:b7:2f:88:fe:35:f4:81:52:
         18:58:19:32:87:18:45:61:9f:83:2e:98:6f:47:f9:d5:57:28:
         14:0c:86:e5:38:ca:c1:cc:7d:33:d1:e5:68:eb:13:64:db:c5:
         70:2e:35:2b:b7:c0:8e:40:f1:1f:87:cc:72:ac:c1:8a:f0:6a:
         b2:a7:5a:84:af:c4:6b:aa:00:70:05:e4:17:33:d9:34:d0:87:
         bc:bc:95:6a:83:6b:d3:bb:9c:f5:58:83:87:86:25:6e:60:df:
         79:32:66:ea:f8:38:7a:5a:53:40:f3:7a:89:cc:d1:42:ba:0f:
         5a:35:03:59:5c:92:f0:49:3c:bd:19:22:79:94:00:b0:e0:8b:
         54:26:d2:75:62:a0:2c:57:c9:61:34:00:0e:20:36:dd:4d:f0:
         91:0f:ee:70
-----BEGIN CERTIFICATE-----
MIIEGTCCAwGgAwIBAgIEEAAA0jANBgkqhkiG9w0BAQsFADBEMQswCQYDVQQGEwJE
RTEPMA0GA1UECAwGSGVzc2VuMRQwEgYDVQQKDAtwcml2YWN5aWRlYTEOMAwGA1UE
AwwFQ0EwMDEwHhcNMTgwOTE3MTk0OTE0WhcNMTkwOTE3MTk0OTE0WjBHMQswCQYD
VQQGEwJERTEPMA0GA1UECAwGSGVzc2VuMRQwEgYDVQQKDAtwcml2YWN5aWRlYTER
MA8GA1UEAwwIdXNlcmNlcnQwggEiMA0GCSqGSIb3DQEBAQUAA4IBDwAwggEKAoIB
AQDcL9FfKZfUfMNTyDC9S2dwLCRruF7rIXpIElZ8gVxIdbZo6/bymE5QUdF/bHPz
Cqeuvkhe5dbh2Sp8Mm5O/Qj2WlRJI3PDuQcY0e+zrPiK3JSWpJA6jnTf5g03G71b
tyUaVjnab5GqXhx08/l8FAGDEmV2x7v+NluV6XJlg+0+mDBx+ofdozZaMAMuJuBh
0b8CP7YGH0qJKBxcov9OvpTmjODagvGdKTJIMHO0BPZCHr734jIyJzydiS9wPoWa
b1zFCcCMMi9yIsnSlR+2rHJgcreCTWvOW+MA0NIvWMbgEOVRyk07LuZ+q4TWVvGT
NaCTZCaBdS+RtRYGOAvbzC0HAgMBAAGjggEOMIIBCjALBgNVHQ8EBAMCBaAwCQYD
VR0TBAIwADARBglghkgBhvhCAQEEBAMCBkAwMwYJYIZIAYb4QgENBCYWJE9wZW5T
U0wgR2VuZXJhdGVkIFNlcnZlciBDZXJ0aWZpY2F0ZTAdBgNVHQ4EFgQU/BTR8EuN
AJDy9bhxnk6Xw5JUrQswdAYDVR0jBG0wa4AU9KfAzJFGr2TzkfIn+Miyb4qHMnOh
SKRGMEQxCzAJBgNVBAYTAkRFMQ8wDQYDVQQIDAZIZXNzZW4xFDASBgNVBAoMC3By
aXZhY3lpZGVhMQ4wDAYDVQQDDAVDQTAwMYIJAPvI66yDzRIHMBMGA1UdJQQMMAoG
CCsGAQUFBwMBMA0GCSqGSIb3DQEBCwUAA4IBAQArgOAbAbh811Tf/afQRO6IfZzc
nLAwXrU1wgkxN+ml/KMRE8dY9Mh1IpQ8NgPPdUEUPZ/kO36DchoH7cCXRyFQ8dVp
tBAJEGWja1KPqo8LD8XCIPhsTgWm2DsyH6gveH91ryr/ty+I/jX0gVIYWBkyhxhF
YZ+DLphvR/nVVygUDIblOMrBzH0z0eVo6xNk28VwLjUrt8COQPEfh8xyrMGK8Gqy
p1qEr8RrqgBwBeQXM9k00Ie8vJVqg2vTu5z1WIOHhiVuYN95Mmbq+Dh6WlNA83qJ
zNFCug9aNQNZXJLwSTy9GSJ5lACw4ItUJtJ1YqAsV8lhNAAOIDbdTfCRD+5w
-----END CERTIFICATE-----
